---
triple:          'arm64-apple-darwin'
binary-path:     day11
relocations:
  - { offsetInCU: 0x6B, offset: 0x6B, size: 0x8, addend: 0x0, symName: __ZNSt3__16ranges5views5__cpo3allE, symObjAddr: 0x7FDD, symBinAddr: 0x10000B9BD, symSize: 0x0 }
  - { offsetInCU: 0x84, offset: 0x84, size: 0x8, addend: 0x0, symName: __ZNSt3__16ranges5views5__cpo6singleE, symObjAddr: 0x7FDE, symBinAddr: 0x10000B9BE, symSize: 0x0 }
  - { offsetInCU: 0x9D, offset: 0x9D, size: 0x8, addend: 0x0, symName: __ZNSt3__16ranges5views5__cpo5splitE, symObjAddr: 0x7FDC, symBinAddr: 0x10000B9BC, symSize: 0x0 }
  - { offsetInCU: 0x199, offset: 0x199, size: 0x8, addend: 0x0, symName: __ZNSt3__16ranges5__cpo6searchE, symObjAddr: 0x7FE2, symBinAddr: 0x10000B9C2, symSize: 0x0 }
  - { offsetInCU: 0x1B2, offset: 0x1B2, size: 0x8, addend: 0x0, symName: __ZNSt3__16ranges5__cpo4sizeE, symObjAddr: 0x7FE5, symBinAddr: 0x10000B9C5, symSize: 0x0 }
  - { offsetInCU: 0x1CB, offset: 0x1CB, size: 0x8, addend: 0x0, symName: __ZNSt3__16ranges5__cpo7advanceE, symObjAddr: 0x7FE6, symBinAddr: 0x10000B9C6, symSize: 0x0 }
  - { offsetInCU: 0x1E4, offset: 0x1E4, size: 0x8, addend: 0x0, symName: __ZNSt3__16ranges5__cpo8distanceE, symObjAddr: 0x7FE7, symBinAddr: 0x10000B9C7, symSize: 0x0 }
  - { offsetInCU: 0x1FD, offset: 0x1FD, size: 0x8, addend: 0x0, symName: __ZNSt3__16ranges5__cpo3endE, symObjAddr: 0x7FE3, symBinAddr: 0x10000B9C3, symSize: 0x0 }
  - { offsetInCU: 0x216, offset: 0x216, size: 0x8, addend: 0x0, symName: __ZNSt3__16ranges5__cpo5emptyE, symObjAddr: 0x7FE4, symBinAddr: 0x10000B9C4, symSize: 0x0 }
  - { offsetInCU: 0x22F, offset: 0x22F, size: 0x8, addend: 0x0, symName: __ZNSt3__16ranges5__cpo5beginE, symObjAddr: 0x7FE1, symBinAddr: 0x10000B9C1, symSize: 0x0 }
  - { offsetInCU: 0x248, offset: 0x248, size: 0x8, addend: 0x0, symName: __ZNSt3__16ranges5__cpo4dataE, symObjAddr: 0x7FE9, symBinAddr: 0x10000B9C9, symSize: 0x0 }
  - { offsetInCU: 0xDE9, offset: 0xDE9, size: 0x8, addend: 0x0, symName: __ZNSt3__16ranges3getB7v160006ILm0EPKcS3_LNS0_13subrange_kindE1EEEDaONS0_8subrangeIT0_T1_XT2_EEE, symObjAddr: 0x22C4, symBinAddr: 0x10000598C, symSize: 0x24 }
  - { offsetInCU: 0xE3B, offset: 0xE3B, size: 0x8, addend: 0x0, symName: __ZNSt3__16ranges3getB7v160006ILm1EPKcS3_LNS0_13subrange_kindE1EEEDaONS0_8subrangeIT0_T1_XT2_EEE, symObjAddr: 0x22E8, symBinAddr: 0x1000059B0, symSize: 0x24 }
  - { offsetInCU: 0xE8D, offset: 0xE8D, size: 0x8, addend: 0x0, symName: __ZNSt3__16rangeseqB7v160006ERKNS0_10split_viewINS_17basic_string_viewIcNS_11char_traitsIcEEEENS0_11single_viewIcEEE10__iteratorESB_, symObjAddr: 0x2EFC, symBinAddr: 0x1000065C4, symSize: 0x6C }
  - { offsetInCU: 0xEFA, offset: 0xEFA, size: 0x8, addend: 0x0, symName: __ZNSt3__18in_placeE, symObjAddr: 0x7FDF, symBinAddr: 0x10000B9BF, symSize: 0x0 }
  - { offsetInCU: 0xF2A, offset: 0xF2A, size: 0x8, addend: 0x0, symName: __ZNSt3__17nulloptE, symObjAddr: 0x7FE0, symBinAddr: 0x10000B9C0, symSize: 0x0 }
  - { offsetInCU: 0x11EDE, offset: 0x11EDE, size: 0x8, addend: 0x0, symName: __ZNSt3__17advanceB7v160006IPxllvEEvRT_T0_, symObjAddr: 0x668C, symBinAddr: 0x100009D54, symSize: 0x50 }
  - { offsetInCU: 0x14C2D, offset: 0x14C2D, size: 0x8, addend: 0x0, symName: __ZNSt3__1neB7v160006IPxEEbRKNS_11__wrap_iterIT_EES6_, symObjAddr: 0x60C, symBinAddr: 0x100003CD4, symSize: 0x34 }
  - { offsetInCU: 0x14C70, offset: 0x14C70, size: 0x8, addend: 0x0, symName: __ZNSt3__13minB7v160006IiEERKT_S3_S3_, symObjAddr: 0x658, symBinAddr: 0x100003D20, symSize: 0x2C }
  - { offsetInCU: 0x14CB3, offset: 0x14CB3, size: 0x8, addend: 0x0, symName: __ZNSt3__1orB7v160006IRNS_17basic_string_viewIcNS_11char_traitsIcEEEENS_25__range_adaptor_closure_tINS_13__bind_back_tINS_6ranges5views12__split_view4__fnENS_5tupleIJcEEEEEEEEEDcOT_OT0_, symObjAddr: 0x994, symBinAddr: 0x10000405C, symSize: 0x34 }
  - { offsetInCU: 0x151A8, offset: 0x151A8, size: 0x8, addend: 0x0, symName: __ZNSt3__1eqB7v160006IPxEEbRKNS_11__wrap_iterIT_EES6_, symObjAddr: 0x1164, symBinAddr: 0x10000482C, symSize: 0x48 }
  - { offsetInCU: 0x151EB, offset: 0x151EB, size: 0x8, addend: 0x0, symName: __ZNSt3__13minB7v160006IiNS_6__lessIiiEEEERKT_S5_S5_T0_, symObjAddr: 0x11C4, symBinAddr: 0x10000488C, symSize: 0x54 }
  - { offsetInCU: 0x15280, offset: 0x15280, size: 0x8, addend: 0x0, symName: __ZNSt3__16invokeB7v160006INS_25__range_adaptor_closure_tINS_13__bind_back_tINS_6ranges5views12__split_view4__fnENS_5tupleIJcEEEEEEEJRNS_17basic_string_viewIcNS_11char_traitsIcEEEEEEENS_13invoke_resultIT_JDpT0_EE4typeEOSH_DpOSI_, symObjAddr: 0x124C, symBinAddr: 0x100004914, symSize: 0x34 }
  - { offsetInCU: 0x152D1, offset: 0x152D1, size: 0x8, addend: 0x0, symName: __ZNSt3__18__invokeB7v160006INS_25__range_adaptor_closure_tINS_13__bind_back_tINS_6ranges5views12__split_view4__fnENS_5tupleIJcEEEEEEEJRNS_17basic_string_viewIcNS_11char_traitsIcEEEEEEEDTclclsr3stdE7declvalIT_EEspclsr3stdE7declvalIT0_EEEEOSG_DpOSH_, symObjAddr: 0x1280, symBinAddr: 0x100004948, symSize: 0x34 }
  - { offsetInCU: 0x15352, offset: 0x15352, size: 0x8, addend: 0x0, symName: __ZNSt3__13getB7v160006ILm0EJNS_6ranges5views12__split_view4__fnENS_5tupleIJcEEEEEEONS_13tuple_elementIXT_ENS5_IJDpT0_EEEE4typeEOSA_, symObjAddr: 0x136C, symBinAddr: 0x100004A34, symSize: 0x24 }
  - { offsetInCU: 0x1539A, offset: 0x1539A, size: 0x8, addend: 0x0, symName: __ZNSt3__13getB7v160006ILm1EJNS_6ranges5views12__split_view4__fnENS_5tupleIJcEEEEEEONS_13tuple_elementIXT_ENS5_IJDpT0_EEEE4typeEOSA_, symObjAddr: 0x1390, symBinAddr: 0x100004A58, symSize: 0x24 }
  - { offsetInCU: 0x153E2, offset: 0x153E2, size: 0x8, addend: 0x0, symName: __ZNSt3__16invokeB7v160006INS_6ranges5views12__split_view4__fnEJRNS_17basic_string_viewIcNS_11char_traitsIcEEEEcEEENS_13invoke_resultIT_JDpT0_EE4typeEOSB_DpOSC_, symObjAddr: 0x13B4, symBinAddr: 0x100004A7C, symSize: 0x3C }
  - { offsetInCU: 0x15447, offset: 0x15447, size: 0x8, addend: 0x0, symName: __ZNSt3__13getB7v160006ILm0EJcEEEONS_13tuple_elementIXT_ENS_5tupleIJDpT0_EEEE4typeEOS5_, symObjAddr: 0x13F0, symBinAddr: 0x100004AB8, symSize: 0x24 }
  - { offsetInCU: 0x1548A, offset: 0x1548A, size: 0x8, addend: 0x0, symName: __ZNSt3__18__invokeB7v160006INS_6ranges5views12__split_view4__fnEJRNS_17basic_string_viewIcNS_11char_traitsIcEEEEcEEEDTclclsr3stdE7declvalIT_EEspclsr3stdE7declvalIT0_EEEEOSA_DpOSB_, symObjAddr: 0x1414, symBinAddr: 0x100004ADC, symSize: 0x3C }
  - { offsetInCU: 0x15505, offset: 0x15505, size: 0x8, addend: 0x0, symName: __ZNSt3__111__bind_backB7v160006IRKNS_6ranges5views12__split_view4__fnEJcEvEEDTcvNS_13__bind_back_tINS_5decayIT_E4typeENS_5tupleIJDpNS8_IT0_E4typeEEEEEE_clsr3stdE7forwardIS9_Efp_Eclsr3stdE16forward_as_tuplespclsr3stdE7forwardISD_Efp0_EEEEOS9_DpOSD_, symObjAddr: 0x1854, symBinAddr: 0x100004F1C, symSize: 0x48 }
  - { offsetInCU: 0x15554, offset: 0x15554, size: 0x8, addend: 0x0, symName: __ZNSt3__116forward_as_tupleB7v160006IJcEEENS_5tupleIJDpOT_EEES4_, symObjAddr: 0x18DC, symBinAddr: 0x100004FA4, symSize: 0x2C }
  - { offsetInCU: 0x155D6, offset: 0x155D6, size: 0x8, addend: 0x0, symName: __ZNSt3__13getB7v160006ILm0EJOcEEERNS_13tuple_elementIXT_ENS_5tupleIJDpT0_EEEE4typeERS6_, symObjAddr: 0x1CCC, symBinAddr: 0x100005394, symSize: 0x24 }
  - { offsetInCU: 0x1563D, offset: 0x1563D, size: 0x8, addend: 0x0, symName: __ZNSt3__112construct_atB7v160006INS_6ranges23__non_propagating_cacheINS1_8subrangeIPKcS5_LNS1_13subrange_kindE1EEEE9__wrapperEJNS8_13__forward_tagES7_EPS9_EEPT_SD_DpOT0_, symObjAddr: 0x2064, symBinAddr: 0x10000572C, symSize: 0x40 }
  - { offsetInCU: 0x15710, offset: 0x15710, size: 0x8, addend: 0x0, symName: __ZNSt3__118__to_unsigned_likeB7v160006IlEEu15__make_unsignedIT_ES1_, symObjAddr: 0x25B8, symBinAddr: 0x100005C80, symSize: 0x14 }
  - { offsetInCU: 0x1577B, offset: 0x1577B, size: 0x8, addend: 0x0, symName: __ZNSt3__127__search_random_access_implB7v160006INS_15_RangeAlgPolicyEPKcS3_PcS4_NS_6ranges8equal_toENS_8identityES7_llEENS_4pairIT0_S9_EES9_T1_T2_T3_RT4_RT5_RT6_T7_T8_, symObjAddr: 0x2634, symBinAddr: 0x100005CFC, symSize: 0x1C4 }
  - { offsetInCU: 0x158AD, offset: 0x158AD, size: 0x8, addend: 0x0, symName: __ZNSt3__19make_pairB7v160006IRPKcS3_EENS_4pairINS_18__unwrap_ref_decayIT_E4typeENS5_IT0_E4typeEEEOS6_OS9_, symObjAddr: 0x27F8, symBinAddr: 0x100005EC0, symSize: 0x38 }
  - { offsetInCU: 0x158FC, offset: 0x158FC, size: 0x8, addend: 0x0, symName: __ZNSt3__18__invokeB7v160006IRNS_6ranges8equal_toEJRKcRcEEEDTclclsr3stdE7declvalIT_EEspclsr3stdE7declvalIT0_EEEEOS7_DpOS8_, symObjAddr: 0x2830, symBinAddr: 0x100005EF8, symSize: 0x38 }
  - { offsetInCU: 0x15961, offset: 0x15961, size: 0x8, addend: 0x0, symName: __ZNSt3__18__invokeB7v160006IRNS_8identityEJRKcEEEDTclclsr3stdE7declvalIT_EEspclsr3stdE7declvalIT0_EEEEOS5_DpOS6_, symObjAddr: 0x2868, symBinAddr: 0x100005F30, symSize: 0x2C }
  - { offsetInCU: 0x159B2, offset: 0x159B2, size: 0x8, addend: 0x0, symName: __ZNSt3__18__invokeB7v160006IRNS_8identityEJRcEEEDTclclsr3stdE7declvalIT_EEspclsr3stdE7declvalIT0_EEEEOS4_DpOS5_, symObjAddr: 0x2894, symBinAddr: 0x100005F5C, symSize: 0x2C }
  - { offsetInCU: 0x15A03, offset: 0x15A03, size: 0x8, addend: 0x0, symName: __ZNSt3__19make_pairB7v160006IRPKcS2_EENS_4pairINS_18__unwrap_ref_decayIT_E4typeENS5_IT0_E4typeEEEOS6_OS9_, symObjAddr: 0x28C0, symBinAddr: 0x100005F88, symSize: 0x38 }
  - { offsetInCU: 0x15B9A, offset: 0x15B9A, size: 0x8, addend: 0x0, symName: __ZNSt3__122__make_exception_guardB7v160006INS_6vectorINS_17basic_string_viewIcNS_11char_traitsIcEEEENS_9allocatorIS5_EEE16__destroy_vectorEEENS_28__exception_guard_exceptionsIT_EESB_, symObjAddr: 0x2E78, symBinAddr: 0x100006540, symSize: 0x40 }
  - { offsetInCU: 0x15BD0, offset: 0x15BD0, size: 0x8, addend: 0x0, symName: __ZNSt3__119__debug_db_insert_cB7v160006INS_6vectorINS_17basic_string_viewIcNS_11char_traitsIcEEEENS_9allocatorIS5_EEEEEEvPT_, symObjAddr: 0x2EEC, symBinAddr: 0x1000065B4, symSize: 0x10 }
  - { offsetInCU: 0x15C00, offset: 0x15C00, size: 0x8, addend: 0x0, symName: __ZNSt3__112__to_addressB7v160006INS_17basic_string_viewIcNS_11char_traitsIcEEEEEEPT_S6_, symObjAddr: 0x352C, symBinAddr: 0x100006BF4, symSize: 0x14 }
  - { offsetInCU: 0x15C5A, offset: 0x15C5A, size: 0x8, addend: 0x0, symName: __ZNSt3__112construct_atB7v160006INS_17basic_string_viewIcNS_11char_traitsIcEEEEJNS_6ranges8subrangeIPKcS8_LNS5_13subrange_kindE1EEEEPS4_EEPT_SD_DpOT0_, symObjAddr: 0x35B0, symBinAddr: 0x100006C78, symSize: 0x3C }
  - { offsetInCU: 0x15CCA, offset: 0x15CCA, size: 0x8, addend: 0x0, symName: __ZNSt3__110to_addressB7v160006IKcEEDaPT_, symObjAddr: 0x36DC, symBinAddr: 0x100006DA4, symSize: 0x24 }
  - { offsetInCU: 0x15CFF, offset: 0x15CFF, size: 0x8, addend: 0x0, symName: __ZNSt3__112__to_addressB7v160006IKcEEPT_S3_, symObjAddr: 0x3714, symBinAddr: 0x100006DDC, symSize: 0x14 }
  - { offsetInCU: 0x15D34, offset: 0x15D34, size: 0x8, addend: 0x0, symName: __ZNSt3__13maxB7v160006ImEERKT_S3_S3_, symObjAddr: 0x3A78, symBinAddr: 0x100007140, symSize: 0x2C }
  - { offsetInCU: 0x15D77, offset: 0x15D77, size: 0x8, addend: 0x0, symName: __ZNSt3__13minB7v160006ImEERKT_S3_S3_, symObjAddr: 0x3AA4, symBinAddr: 0x10000716C, symSize: 0x2C }
  - { offsetInCU: 0x15FA4, offset: 0x15FA4, size: 0x8, addend: 0x0, symName: __ZNSt3__13minB7v160006ImNS_6__lessImmEEEERKT_S5_S5_T0_, symObjAddr: 0x3B34, symBinAddr: 0x1000071FC, symSize: 0x54 }
  - { offsetInCU: 0x16226, offset: 0x16226, size: 0x8, addend: 0x0, symName: __ZNSt3__120__throw_length_errorB7v160006EPKc, symObjAddr: 0x3C18, symBinAddr: 0x1000072E0, symSize: 0x64 }
  - { offsetInCU: 0x1624D, offset: 0x1624D, size: 0x8, addend: 0x0, symName: __ZNSt3__13maxB7v160006ImNS_6__lessImmEEEERKT_S5_S5_T0_, symObjAddr: 0x3D5C, symBinAddr: 0x100007424, symSize: 0x54 }
  - { offsetInCU: 0x162A7, offset: 0x162A7, size: 0x8, addend: 0x0, symName: __ZNSt3__119__allocate_at_leastB7v160006INS_9allocatorINS_17basic_string_viewIcNS_11char_traitsIcEEEEEEEEDaRT_m, symObjAddr: 0x3EC0, symBinAddr: 0x100007588, symSize: 0x3C }
  - { offsetInCU: 0x162EA, offset: 0x162EA, size: 0x8, addend: 0x0, symName: __ZNSt3__117allocate_at_leastB7v160006INS_9allocatorINS_17basic_string_viewIcNS_11char_traitsIcEEEEEEEENS_17allocation_resultINS_16allocator_traitsIT_E7pointerEEERS9_m, symObjAddr: 0x3FB4, symBinAddr: 0x10000767C, symSize: 0x3C }
  - { offsetInCU: 0x1632D, offset: 0x1632D, size: 0x8, addend: 0x0, symName: __ZNSt3__117__libcpp_allocateB7v160006Emm, symObjAddr: 0x40BC, symBinAddr: 0x100007784, symSize: 0x60 }
  - { offsetInCU: 0x16388, offset: 0x16388, size: 0x8, addend: 0x0, symName: __ZNSt3__124__is_overaligned_for_newB7v160006Em, symObjAddr: 0x411C, symBinAddr: 0x1000077E4, symSize: 0x20 }
  - { offsetInCU: 0x163B6, offset: 0x163B6, size: 0x8, addend: 0x0, symName: __ZNSt3__121__libcpp_operator_newB7v160006IJmSt11align_val_tEEEPvDpT_, symObjAddr: 0x413C, symBinAddr: 0x100007804, symSize: 0x2C }
  - { offsetInCU: 0x16403, offset: 0x16403, size: 0x8, addend: 0x0, symName: __ZNSt3__121__libcpp_operator_newB7v160006IJmEEEPvDpT_, symObjAddr: 0x4168, symBinAddr: 0x100007830, symSize: 0x24 }
  - { offsetInCU: 0x1643C, offset: 0x1643C, size: 0x8, addend: 0x0, symName: __ZNSt3__142__uninitialized_allocator_move_if_noexceptB7v160006INS_9allocatorINS_17basic_string_viewIcNS_11char_traitsIcEEEEEENS_16reverse_iteratorIPS5_EES9_S5_vEET1_RT_T0_SD_SA_, symObjAddr: 0x42A8, symBinAddr: 0x100007970, symSize: 0x78 }
  - { offsetInCU: 0x164BA, offset: 0x164BA, size: 0x8, addend: 0x0, symName: __ZNSt3__14swapB7v160006IPNS_17basic_string_viewIcNS_11char_traitsIcEEEEEENS_9enable_ifIXaasr21is_move_constructibleIT_EE5valuesr18is_move_assignableIS7_EE5valueEvE4typeERS7_SA_, symObjAddr: 0x436C, symBinAddr: 0x100007A34, symSize: 0x3C }
  - { offsetInCU: 0x1650C, offset: 0x1650C, size: 0x8, addend: 0x0, symName: __ZNSt3__125__debug_db_invalidate_allB7v160006INS_6vectorINS_17basic_string_viewIcNS_11char_traitsIcEEEENS_9allocatorIS5_EEEEEEvPT_, symObjAddr: 0x4454, symBinAddr: 0x100007B1C, symSize: 0x10 }
  - { offsetInCU: 0x1653C, offset: 0x1653C, size: 0x8, addend: 0x0, symName: __ZNSt3__14moveB7v160006INS_16reverse_iteratorIPNS_17basic_string_viewIcNS_11char_traitsIcEEEEEES7_EET0_T_S9_S8_, symObjAddr: 0x44AC, symBinAddr: 0x100007B74, symSize: 0x78 }
  - { offsetInCU: 0x16596, offset: 0x16596, size: 0x8, addend: 0x0, symName: __ZNSt3__16__moveB7v160006INS_17_ClassicAlgPolicyENS_16reverse_iteratorIPNS_17basic_string_viewIcNS_11char_traitsIcEEEEEES8_S8_EENS_4pairIT0_T2_EESA_T1_SB_, symObjAddr: 0x4524, symBinAddr: 0x100007BEC, symSize: 0x64 }
  - { offsetInCU: 0x16602, offset: 0x16602, size: 0x8, addend: 0x0, symName: __ZNSt3__123__dispatch_copy_or_moveB7v160006INS_17_ClassicAlgPolicyENS_11__move_loopIS1_EENS_14__move_trivialENS_16reverse_iteratorIPNS_17basic_string_viewIcNS_11char_traitsIcEEEEEESB_SB_EENS_4pairIT2_T4_EESD_T3_SE_, symObjAddr: 0x4588, symBinAddr: 0x100007C50, symSize: 0x64 }
  - { offsetInCU: 0x16680, offset: 0x16680, size: 0x8, addend: 0x0, symName: __ZNSt3__121__unwrap_and_dispatchB7v160006INS_10__overloadINS_11__move_loopINS_17_ClassicAlgPolicyEEENS_14__move_trivialEEENS_16reverse_iteratorIPNS_17basic_string_viewIcNS_11char_traitsIcEEEEEESD_SD_Li0EEENS_4pairIT0_T2_EESF_T1_SG_, symObjAddr: 0x45EC, symBinAddr: 0x100007CB4, symSize: 0x12C }
  - { offsetInCU: 0x16710, offset: 0x16710, size: 0x8, addend: 0x0, symName: __ZNSt3__114__unwrap_rangeB7v160006INS_16reverse_iteratorIPNS_17basic_string_viewIcNS_11char_traitsIcEEEEEES7_EEDaT_T0_, symObjAddr: 0x4718, symBinAddr: 0x100007DE0, symSize: 0x4C }
  - { offsetInCU: 0x168D8, offset: 0x168D8, size: 0x8, addend: 0x0, symName: __ZNSt3__113__unwrap_iterB7v160006INS_16reverse_iteratorIPNS_17basic_string_viewIcNS_11char_traitsIcEEEEEENS_18__unwrap_iter_implIS7_Lb0EEELi0EEEDTclsrT0_8__unwrapclsr3stdE7declvalIT_EEEESB_, symObjAddr: 0x4804, symBinAddr: 0x100007ECC, symSize: 0x44 }
  - { offsetInCU: 0x1691C, offset: 0x1691C, size: 0x8, addend: 0x0, symName: __ZNSt3__19make_pairB7v160006INS_16reverse_iteratorIPNS_17basic_string_viewIcNS_11char_traitsIcEEEEEES7_EENS_4pairINS_18__unwrap_ref_decayIT_E4typeENS9_IT0_E4typeEEEOSA_OSD_, symObjAddr: 0x4848, symBinAddr: 0x100007F10, symSize: 0x38 }
  - { offsetInCU: 0x1696B, offset: 0x1696B, size: 0x8, addend: 0x0, symName: __ZNSt3__114__rewrap_rangeB7v160006INS_16reverse_iteratorIPNS_17basic_string_viewIcNS_11char_traitsIcEEEEEES7_S7_EET0_S8_T1_, symObjAddr: 0x4880, symBinAddr: 0x100007F48, symSize: 0x5C }
  - { offsetInCU: 0x169C0, offset: 0x169C0, size: 0x8, addend: 0x0, symName: __ZNSt3__113__rewrap_iterB7v160006INS_16reverse_iteratorIPNS_17basic_string_viewIcNS_11char_traitsIcEEEEEES7_NS_18__unwrap_iter_implIS7_Lb0EEEEET_SA_T0_, symObjAddr: 0x48DC, symBinAddr: 0x100007FA4, symSize: 0x74 }
  - { offsetInCU: 0x16A65, offset: 0x16A65, size: 0x8, addend: 0x0, symName: __ZNSt3__1neB7v160006IPNS_17basic_string_viewIcNS_11char_traitsIcEEEES5_EEbRKNS_16reverse_iteratorIT_EERKNS6_IT0_EE, symObjAddr: 0x4A44, symBinAddr: 0x10000810C, symSize: 0x48 }
  - { offsetInCU: 0x16B63, offset: 0x16B63, size: 0x8, addend: 0x0, symName: __ZNSt3__110destroy_atB7v160006INS_17basic_string_viewIcNS_11char_traitsIcEEEELi0EEEvPT_, symObjAddr: 0x4DD0, symBinAddr: 0x100008498, symSize: 0x24 }
  - { offsetInCU: 0x16B9B, offset: 0x16B9B, size: 0x8, addend: 0x0, symName: __ZNSt3__112__destroy_atB7v160006INS_17basic_string_viewIcNS_11char_traitsIcEEEELi0EEEvPT_, symObjAddr: 0x4DF4, symBinAddr: 0x1000084BC, symSize: 0x10 }
  - { offsetInCU: 0x16BD2, offset: 0x16BD2, size: 0x8, addend: 0x0, symName: __ZNSt3__119__libcpp_deallocateB7v160006EPvmm, symObjAddr: 0x4E44, symBinAddr: 0x10000850C, symSize: 0x60 }
  - { offsetInCU: 0x16C38, offset: 0x16C38, size: 0x8, addend: 0x0, symName: __ZNSt3__127__do_deallocate_handle_sizeB7v160006IJSt11align_val_tEEEvPvmDpT_, symObjAddr: 0x4EA4, symBinAddr: 0x10000856C, symSize: 0x30 }
  - { offsetInCU: 0x16C8C, offset: 0x16C8C, size: 0x8, addend: 0x0, symName: __ZNSt3__127__do_deallocate_handle_sizeB7v160006IJEEEvPvmDpT_, symObjAddr: 0x4ED4, symBinAddr: 0x10000859C, symSize: 0x28 }
  - { offsetInCU: 0x16CCB, offset: 0x16CCB, size: 0x8, addend: 0x0, symName: __ZNSt3__124__libcpp_operator_deleteB7v160006IJPvSt11align_val_tEEEvDpT_, symObjAddr: 0x4EFC, symBinAddr: 0x1000085C4, symSize: 0x2C }
  - { offsetInCU: 0x16D15, offset: 0x16D15, size: 0x8, addend: 0x0, symName: __ZNSt3__124__libcpp_operator_deleteB7v160006IJPvEEEvDpT_, symObjAddr: 0x4F28, symBinAddr: 0x1000085F0, symSize: 0x24 }
  - { offsetInCU: 0x16D4B, offset: 0x16D4B, size: 0x8, addend: 0x0, symName: __ZNSt3__118__debug_db_erase_cB7v160006INS_6vectorINS_17basic_string_viewIcNS_11char_traitsIcEEEENS_9allocatorIS5_EEEEEEvPT_, symObjAddr: 0x5084, symBinAddr: 0x10000874C, symSize: 0x10 }
  - { offsetInCU: 0x16D7B, offset: 0x16D7B, size: 0x8, addend: 0x0, symName: __ZNSt3__122__make_exception_guardB7v160006INS_6vectorIxNS_9allocatorIxEEE16__destroy_vectorEEENS_28__exception_guard_exceptionsIT_EES7_, symObjAddr: 0x526C, symBinAddr: 0x100008934, symSize: 0x40 }
  - { offsetInCU: 0x16DB1, offset: 0x16DB1, size: 0x8, addend: 0x0, symName: __ZNSt3__119__debug_db_insert_cB7v160006INS_6vectorIxNS_9allocatorIxEEEEEEvPT_, symObjAddr: 0x52E0, symBinAddr: 0x1000089A8, symSize: 0x10 }
  - { offsetInCU: 0x16DE1, offset: 0x16DE1, size: 0x8, addend: 0x0, symName: __ZNSt3__119__allocate_at_leastB7v160006INS_9allocatorIxEEEEDaRT_m, symObjAddr: 0x5670, symBinAddr: 0x100008D38, symSize: 0x3C }
  - { offsetInCU: 0x16E24, offset: 0x16E24, size: 0x8, addend: 0x0, symName: __ZNSt3__117allocate_at_leastB7v160006INS_9allocatorIxEEEENS_17allocation_resultINS_16allocator_traitsIT_E7pointerEEERS5_m, symObjAddr: 0x5830, symBinAddr: 0x100008EF8, symSize: 0x3C }
  - { offsetInCU: 0x16E67, offset: 0x16E67, size: 0x8, addend: 0x0, symName: __ZNSt3__112__to_addressB7v160006IxEEPT_S2_, symObjAddr: 0x59FC, symBinAddr: 0x1000090C4, symSize: 0x14 }
  - { offsetInCU: 0x16EC1, offset: 0x16EC1, size: 0x8, addend: 0x0, symName: __ZNSt3__112construct_atB7v160006IxJRKxEPxEEPT_S5_DpOT0_, symObjAddr: 0x5B4C, symBinAddr: 0x100009214, symSize: 0x2C }
  - { offsetInCU: 0x16F32, offset: 0x16F32, size: 0x8, addend: 0x0, symName: __ZNSt3__118__debug_db_erase_cB7v160006INS_6vectorIxNS_9allocatorIxEEEEEEvPT_, symObjAddr: 0x5D3C, symBinAddr: 0x100009404, symSize: 0x10 }
  - { offsetInCU: 0x16F62, offset: 0x16F62, size: 0x8, addend: 0x0, symName: __ZNSt3__110destroy_atB7v160006IxLi0EEEvPT_, symObjAddr: 0x5E5C, symBinAddr: 0x100009524, symSize: 0x24 }
  - { offsetInCU: 0x16F9A, offset: 0x16F9A, size: 0x8, addend: 0x0, symName: __ZNSt3__112__destroy_atB7v160006IxLi0EEEvPT_, symObjAddr: 0x5E80, symBinAddr: 0x100009548, symSize: 0x10 }
  - { offsetInCU: 0x16FD0, offset: 0x16FD0, size: 0x8, addend: 0x0, symName: __ZNSt3__130__uninitialized_allocator_copyB7v160006INS_9allocatorIxEEPxS3_S3_EET2_RT_T0_T1_S4_, symObjAddr: 0x6114, symBinAddr: 0x1000097DC, symSize: 0xF4 }
  - { offsetInCU: 0x1706E, offset: 0x1706E, size: 0x8, addend: 0x0, symName: __ZNSt3__122__make_exception_guardB7v160006INS_29_AllocatorDestroyRangeReverseINS_9allocatorIxEEPxEEEENS_28__exception_guard_exceptionsIT_EES7_, symObjAddr: 0x6208, symBinAddr: 0x1000098D0, symSize: 0x4C }
  - { offsetInCU: 0x170A4, offset: 0x170A4, size: 0x8, addend: 0x0, symName: __ZNSt3__112construct_atB7v160006IxJRxEPxEEPT_S4_DpOT0_, symObjAddr: 0x63AC, symBinAddr: 0x100009A74, symSize: 0x2C }
  - { offsetInCU: 0x17115, offset: 0x17115, size: 0x8, addend: 0x0, symName: __ZNSt3__119__allocator_destroyB7v160006INS_9allocatorIxEENS_16reverse_iteratorIPxEES5_EEvRT_T0_T1_, symObjAddr: 0x6490, symBinAddr: 0x100009B58, symSize: 0x70 }
  - { offsetInCU: 0x17178, offset: 0x17178, size: 0x8, addend: 0x0, symName: __ZNSt3__1neB7v160006IPxS1_EEbRKNS_16reverse_iteratorIT_EERKNS2_IT0_EE, symObjAddr: 0x6534, symBinAddr: 0x100009BFC, symSize: 0x48 }
  - { offsetInCU: 0x171C4, offset: 0x171C4, size: 0x8, addend: 0x0, symName: __ZNSt3__112__to_addressB7v160006INS_16reverse_iteratorIPxEEvEENS_5decayIDTclsr19__to_address_helperIT_EE6__callclsr3stdE7declvalIRKS5_EEEEE4typeES7_, symObjAddr: 0x657C, symBinAddr: 0x100009C44, symSize: 0x24 }
  - { offsetInCU: 0x17223, offset: 0x17223, size: 0x8, addend: 0x0, symName: __ZNSt3__14prevB7v160006IPxEENS_9enable_ifIXsr25__is_cpp17_input_iteratorIT_EE5valueES3_E4typeES3_NS_15iterator_traitsIS3_E15difference_typeE, symObjAddr: 0x663C, symBinAddr: 0x100009D04, symSize: 0x50 }
  - { offsetInCU: 0x17266, offset: 0x17266, size: 0x8, addend: 0x0, symName: __ZNSt3__121__convert_to_integralB7v160006El, symObjAddr: 0x66DC, symBinAddr: 0x100009DA4, symSize: 0x14 }
  - { offsetInCU: 0x17293, offset: 0x17293, size: 0x8, addend: 0x0, symName: __ZNSt3__19__advanceB7v160006IPxEEvRT_NS_15iterator_traitsIS2_E15difference_typeENS_26random_access_iterator_tagE, symObjAddr: 0x66F0, symBinAddr: 0x100009DB8, symSize: 0x28 }
  - { offsetInCU: 0x172DC, offset: 0x172DC, size: 0x8, addend: 0x0, symName: __ZNSt3__128__char_traits_length_checkedB7v160006INS_11char_traitsIcEEEEmPKNT_9char_typeE, symObjAddr: 0x680C, symBinAddr: 0x100009ED4, symSize: 0x24 }
  - { offsetInCU: 0x17311, offset: 0x17311, size: 0x8, addend: 0x0, symName: __ZNSt3__118__constexpr_strlenB7v160006EPKc, symObjAddr: 0x6864, symBinAddr: 0x100009F2C, symSize: 0x24 }
  - { offsetInCU: 0x17371, offset: 0x17371, size: 0x8, addend: 0x0, symName: __ZNSt3__119__debug_db_insert_cB7v160006INS_12basic_stringIcNS_11char_traitsIcEENS_9allocatorIcEEEEEEvPT_, symObjAddr: 0x6DE4, symBinAddr: 0x10000A4AC, symSize: 0x10 }
  - { offsetInCU: 0x173E3, offset: 0x173E3, size: 0x8, addend: 0x0, symName: __ZNSt3__18distanceB7v160006IPKcEENS_15iterator_traitsIT_E15difference_typeES4_S4_, symObjAddr: 0x71F4, symBinAddr: 0x10000A8BC, symSize: 0x2C }
  - { offsetInCU: 0x17426, offset: 0x17426, size: 0x8, addend: 0x0, symName: __ZNSt3__110__distanceB7v160006IPKcEENS_15iterator_traitsIT_E15difference_typeES4_S4_NS_26random_access_iterator_tagE, symObjAddr: 0x741C, symBinAddr: 0x10000AAE4, symSize: 0x20 }
  - { offsetInCU: 0x17474, offset: 0x17474, size: 0x8, addend: 0x0, symName: __ZNSt3__119__allocate_at_leastB7v160006INS_9allocatorIcEEEEDaRT_m, symObjAddr: 0x78B4, symBinAddr: 0x10000AF7C, symSize: 0x3C }
  - { offsetInCU: 0x174B7, offset: 0x174B7, size: 0x8, addend: 0x0, symName: __ZNSt3__117allocate_at_leastB7v160006INS_9allocatorIcEEEENS_17allocation_resultINS_16allocator_traitsIT_E7pointerEEERS5_m, symObjAddr: 0x7AB4, symBinAddr: 0x10000B17C, symSize: 0x3C }
  - { offsetInCU: 0x17B59, offset: 0x17B59, size: 0x8, addend: 0x0, symName: __ZSt28__throw_bad_array_new_lengthB7v160006v, symObjAddr: 0x4088, symBinAddr: 0x100007750, symSize: 0x34 }
  - { offsetInCU: 0x17BB9, offset: 0x17BB9, size: 0x8, addend: 0x0, symName: __ZNSt3__18_IterOpsINS_15_RangeAlgPolicyEE12__advance_toE, symObjAddr: 0x7FE8, symBinAddr: 0x10000B9C8, symSize: 0x0 }
  - { offsetInCU: 0x189CF, offset: 0x189CF, size: 0x8, addend: 0x0, symName: __ZNSt3__16vectorINS_17basic_string_viewIcNS_11char_traitsIcEEEENS_9allocatorIS4_EEE26__swap_out_circular_bufferERNS_14__split_bufferIS4_RS6_EE, symObjAddr: 0x3878, symBinAddr: 0x100006F40, symSize: 0x118 }
  - { offsetInCU: 0x1AE87, offset: 0x1AE87, size: 0x8, addend: 0x0, symName: __Z18get_file_as_stringNSt3__117basic_string_viewIcNS_11char_traitsIcEEEE, symObjAddr: 0x0, symBinAddr: 0x1000036C8, symSize: 0x150 }
  - { offsetInCU: 0x1B011, offset: 0x1B011, size: 0x8, addend: 0x0, symName: __ZNSt3__114basic_ifstreamIcNS_11char_traitsIcEEEC1Ev, symObjAddr: 0x150, symBinAddr: 0x100003818, symSize: 0xE8 }
  - { offsetInCU: 0x1B03D, offset: 0x1B03D, size: 0x8, addend: 0x0, symName: __ZNSt3__114basic_ifstreamIcNS_11char_traitsIcEEE4openB7v160006ERKNS_4__fs10filesystem4pathEj, symObjAddr: 0x238, symBinAddr: 0x100003900, symSize: 0x44 }
  - { offsetInCU: 0x1B081, offset: 0x1B081, size: 0x8, addend: 0x0, symName: __ZNSt3__14__fs10filesystem4pathC1B7v160006INS_17basic_string_viewIcNS_11char_traitsIcEEEEvEERKT_NS2_6formatE, symObjAddr: 0x27C, symBinAddr: 0x100003944, symSize: 0x3C }
  - { offsetInCU: 0x1B0D0, offset: 0x1B0D0, size: 0x8, addend: 0x0, symName: __ZNSt3__14__fs10filesystem4pathD1B7v160006Ev, symObjAddr: 0x2B8, symBinAddr: 0x100003980, symSize: 0x2C }
  - { offsetInCU: 0x1B168, offset: 0x1B168, size: 0x8, addend: 0x0, symName: __ZNSt3__118basic_stringstreamIcNS_11char_traitsIcEENS_9allocatorIcEEEC1B7v160006Ev, symObjAddr: 0x2E4, symBinAddr: 0x1000039AC, symSize: 0x104 }
  - { offsetInCU: 0x1B192, offset: 0x1B192, size: 0x8, addend: 0x0, symName: __ZNKSt3__114basic_ifstreamIcNS_11char_traitsIcEEE5rdbufEv, symObjAddr: 0x3E8, symBinAddr: 0x100003AB0, symSize: 0x18 }
  - { offsetInCU: 0x1B1BA, offset: 0x1B1BA, size: 0x8, addend: 0x0, symName: __ZNKSt3__118basic_stringstreamIcNS_11char_traitsIcEENS_9allocatorIcEEE3strB7v160006Ev, symObjAddr: 0x400, symBinAddr: 0x100003AC8, symSize: 0x30 }
  - { offsetInCU: 0x1B1E6, offset: 0x1B1E6, size: 0x8, addend: 0x0, symName: __ZNSt3__118basic_stringstreamIcNS_11char_traitsIcEENS_9allocatorIcEEED1Ev, symObjAddr: 0x430, symBinAddr: 0x100003AF8, symSize: 0x40 }
  - { offsetInCU: 0x1B219, offset: 0x1B219, size: 0x8, addend: 0x0, symName: __ZNSt3__114basic_ifstreamIcNS_11char_traitsIcEEED1Ev, symObjAddr: 0x470, symBinAddr: 0x100003B38, symSize: 0x40 }
  - { offsetInCU: 0x1B245, offset: 0x1B245, size: 0x8, addend: 0x0, symName: __Z14calc_distancesNSt3__16vectorIxNS_9allocatorIxEEEEi, symObjAddr: 0x4B0, symBinAddr: 0x100003B78, symSize: 0xFC }
  - { offsetInCU: 0x1B318, offset: 0x1B318, size: 0x8, addend: 0x0, symName: __ZNSt3__16vectorIxNS_9allocatorIxEEE5beginB7v160006Ev, symObjAddr: 0x5AC, symBinAddr: 0x100003C74, symSize: 0x30 }
  - { offsetInCU: 0x1B340, offset: 0x1B340, size: 0x8, addend: 0x0, symName: __ZNSt3__16vectorIxNS_9allocatorIxEEE3endB7v160006Ev, symObjAddr: 0x5DC, symBinAddr: 0x100003CA4, symSize: 0x30 }
  - { offsetInCU: 0x1B368, offset: 0x1B368, size: 0x8, addend: 0x0, symName: __ZNKSt3__111__wrap_iterIPxEdeB7v160006Ev, symObjAddr: 0x640, symBinAddr: 0x100003D08, symSize: 0x18 }
  - { offsetInCU: 0x1B38E, offset: 0x1B38E, size: 0x8, addend: 0x0, symName: __ZNSt3__111__wrap_iterIPxEppB7v160006Ev, symObjAddr: 0x684, symBinAddr: 0x100003D4C, symSize: 0x20 }
  - { offsetInCU: 0x1B3B3, offset: 0x1B3B3, size: 0x8, addend: 0x0, symName: __Z5part1NSt3__117basic_string_viewIcNS_11char_traitsIcEEEEi, symObjAddr: 0x6A4, symBinAddr: 0x100003D6C, symSize: 0x2F0 }
  - { offsetInCU: 0x1B480, offset: 0x1B480, size: 0x8, addend: 0x0, symName: __ZNKSt3__16ranges5views12__split_view4__fnclB7v160006IcEEDaOT_, symObjAddr: 0x9C8, symBinAddr: 0x100004090, symSize: 0x54 }
  - { offsetInCU: 0x1B5DE, offset: 0x1B5DE, size: 0x8, addend: 0x0, symName: __ZNSt3__16ranges10split_viewINS_17basic_string_viewIcNS_11char_traitsIcEEEENS0_11single_viewIcEEE5beginB7v160006Ev, symObjAddr: 0xA1C, symBinAddr: 0x1000040E4, symSize: 0xC4 }
  - { offsetInCU: 0x1B604, offset: 0x1B604, size: 0x8, addend: 0x0, symName: __ZNSt3__16ranges10split_viewINS_17basic_string_viewIcNS_11char_traitsIcEEEENS0_11single_viewIcEEE3endB7v160006Ev, symObjAddr: 0xAE0, symBinAddr: 0x1000041A8, symSize: 0x60 }
  - { offsetInCU: 0x1B62A, offset: 0x1B62A, size: 0x8, addend: 0x0, symName: __ZNSt3__16vectorINS_17basic_string_viewIcNS_11char_traitsIcEEEENS_9allocatorIS4_EEEC1INS_6ranges10split_viewIS4_NS9_11single_viewIcEEE10__iteratorELi0EEET_SF_, symObjAddr: 0xB40, symBinAddr: 0x100004208, symSize: 0x3C }
  - { offsetInCU: 0x1B685, offset: 0x1B685, size: 0x8, addend: 0x0, symName: __ZNKSt3__16vectorINS_17basic_string_viewIcNS_11char_traitsIcEEEENS_9allocatorIS4_EEE4sizeB7v160006Ev, symObjAddr: 0xB7C, symBinAddr: 0x100004244, symSize: 0x28 }
  - { offsetInCU: 0x1B6AB, offset: 0x1B6AB, size: 0x8, addend: 0x0, symName: __ZNSt3__16vectorIxNS_9allocatorIxEEEC1EmRKx, symObjAddr: 0xBA4, symBinAddr: 0x10000426C, symSize: 0x3C }
  - { offsetInCU: 0x1B6F5, offset: 0x1B6F5, size: 0x8, addend: 0x0, symName: __ZNSt3__16vectorINS_17basic_string_viewIcNS_11char_traitsIcEEEENS_9allocatorIS4_EEEixB7v160006Em, symObjAddr: 0xBE0, symBinAddr: 0x1000042A8, symSize: 0x24 }
  - { offsetInCU: 0x1B72C, offset: 0x1B72C, size: 0x8, addend: 0x0, symName: __ZNKSt3__117basic_string_viewIcNS_11char_traitsIcEEE4sizeB7v160006Ev, symObjAddr: 0xC04, symBinAddr: 0x1000042CC, symSize: 0x18 }
  - { offsetInCU: 0x1B752, offset: 0x1B752, size: 0x8, addend: 0x0, symName: __ZNKSt3__16vectorIxNS_9allocatorIxEEE4sizeB7v160006Ev, symObjAddr: 0xC1C, symBinAddr: 0x1000042E4, symSize: 0x28 }
  - { offsetInCU: 0x1B778, offset: 0x1B778, size: 0x8, addend: 0x0, symName: __ZNKSt3__117basic_string_viewIcNS_11char_traitsIcEEEixB7v160006Em, symObjAddr: 0xC44, symBinAddr: 0x10000430C, symSize: 0x24 }
  - { offsetInCU: 0x1B7AD, offset: 0x1B7AD, size: 0x8, addend: 0x0, symName: __ZNSt3__16vectorIxNS_9allocatorIxEEEixB7v160006Em, symObjAddr: 0xC68, symBinAddr: 0x100004330, symSize: 0x24 }
  - { offsetInCU: 0x1B7E4, offset: 0x1B7E4, size: 0x8, addend: 0x0, symName: __ZNSt3__16vectorIxNS_9allocatorIxEEEC1ERKS3_, symObjAddr: 0xC8C, symBinAddr: 0x100004354, symSize: 0x34 }
  - { offsetInCU: 0x1B81F, offset: 0x1B81F, size: 0x8, addend: 0x0, symName: __ZNSt3__16vectorIxNS_9allocatorIxEEED1B7v160006Ev, symObjAddr: 0xCC0, symBinAddr: 0x100004388, symSize: 0x2C }
  - { offsetInCU: 0x1B849, offset: 0x1B849, size: 0x8, addend: 0x0, symName: __ZNSt3__16vectorINS_17basic_string_viewIcNS_11char_traitsIcEEEENS_9allocatorIS4_EEED1B7v160006Ev, symObjAddr: 0xCEC, symBinAddr: 0x1000043B4, symSize: 0x2C }
  - { offsetInCU: 0x1B873, offset: 0x1B873, size: 0x8, addend: 0x0, symName: _main, symObjAddr: 0xD18, symBinAddr: 0x1000043E0, symSize: 0x158 }
  - { offsetInCU: 0x1B89C, offset: 0x1B89C, size: 0x8, addend: 0x0, symName: __ZNSt3__117basic_string_viewIcNS_11char_traitsIcEEEC1B7v160006EPKc, symObjAddr: 0xE70, symBinAddr: 0x100004538, symSize: 0x34 }
  - { offsetInCU: 0x1B8D5, offset: 0x1B8D5, size: 0x8, addend: 0x0, symName: __ZNKSt3__112basic_stringIcNS_11char_traitsIcEENS_9allocatorIcEEEcvNS_17basic_string_viewIcS2_EEB7v160006Ev, symObjAddr: 0xEA4, symBinAddr: 0x10000456C, symSize: 0x50 }
  - { offsetInCU: 0x1B8FB, offset: 0x1B8FB, size: 0x8, addend: 0x0, symName: __ZNSt3__14__fs10filesystem4pathD2B7v160006Ev, symObjAddr: 0xEF4, symBinAddr: 0x1000045BC, symSize: 0x2C }
  - { offsetInCU: 0x1B925, offset: 0x1B925, size: 0x8, addend: 0x0, symName: __ZNSt3__118basic_stringstreamIcNS_11char_traitsIcEENS_9allocatorIcEEED2Ev, symObjAddr: 0xF20, symBinAddr: 0x1000045E8, symSize: 0x6C }
  - { offsetInCU: 0x1B95F, offset: 0x1B95F, size: 0x8, addend: 0x0, symName: __ZThn16_NSt3__118basic_stringstreamIcNS_11char_traitsIcEENS_9allocatorIcEEED1Ev, symObjAddr: 0xF8C, symBinAddr: 0x100004654, symSize: 0x1C }
  - { offsetInCU: 0x1B976, offset: 0x1B976, size: 0x8, addend: 0x0, symName: __ZTv0_n24_NSt3__118basic_stringstreamIcNS_11char_traitsIcEENS_9allocatorIcEEED1Ev, symObjAddr: 0xFA8, symBinAddr: 0x100004670, symSize: 0x28 }
  - { offsetInCU: 0x1B993, offset: 0x1B993, size: 0x8, addend: 0x0, symName: __ZNSt3__115basic_stringbufIcNS_11char_traitsIcEENS_9allocatorIcEEED1Ev, symObjAddr: 0xFD0, symBinAddr: 0x100004698, symSize: 0x2C }
  - { offsetInCU: 0x1B9C0, offset: 0x1B9C0, size: 0x8, addend: 0x0, symName: __ZNSt3__115basic_stringbufIcNS_11char_traitsIcEENS_9allocatorIcEEED2Ev, symObjAddr: 0xFFC, symBinAddr: 0x1000046C4, symSize: 0x48 }
  - { offsetInCU: 0x1B9ED, offset: 0x1B9ED, size: 0x8, addend: 0x0, symName: __ZNSt3__114basic_ifstreamIcNS_11char_traitsIcEEED2Ev, symObjAddr: 0x1044, symBinAddr: 0x10000470C, symSize: 0x64 }
  - { offsetInCU: 0x1BA27, offset: 0x1BA27, size: 0x8, addend: 0x0, symName: __ZTv0_n24_NSt3__114basic_ifstreamIcNS_11char_traitsIcEEED1Ev, symObjAddr: 0x10A8, symBinAddr: 0x100004770, symSize: 0x28 }
  - { offsetInCU: 0x1BA3E, offset: 0x1BA3E, size: 0x8, addend: 0x0, symName: __ZNSt3__16vectorIxNS_9allocatorIxEEE11__make_iterB7v160006EPx, symObjAddr: 0x10D0, symBinAddr: 0x100004798, symSize: 0x34 }
  - { offsetInCU: 0x1BA73, offset: 0x1BA73, size: 0x8, addend: 0x0, symName: __ZNSt3__111__wrap_iterIPxEC1B7v160006EPKvS1_, symObjAddr: 0x1104, symBinAddr: 0x1000047CC, symSize: 0x3C }
  - { offsetInCU: 0x1BAB9, offset: 0x1BAB9, size: 0x8, addend: 0x0, symName: __ZNSt3__111__wrap_iterIPxEC2B7v160006EPKvS1_, symObjAddr: 0x1140, symBinAddr: 0x100004808, symSize: 0x24 }
  - { offsetInCU: 0x1BAFF, offset: 0x1BAFF, size: 0x8, addend: 0x0, symName: __ZNKSt3__111__wrap_iterIPxE4baseB7v160006Ev, symObjAddr: 0x11AC, symBinAddr: 0x100004874, symSize: 0x18 }
  - { offsetInCU: 0x1BB36, offset: 0x1BB36, size: 0x8, addend: 0x0, symName: __ZNKSt3__16__lessIiiEclB7v160006ERKiS3_, symObjAddr: 0x1218, symBinAddr: 0x1000048E0, symSize: 0x34 }
  - { offsetInCU: 0x1BB78, offset: 0x1BB78, size: 0x8, addend: 0x0, symName: __ZNOSt3__122__perfect_forward_implINS_14__bind_back_opILm1ENS_16integer_sequenceImJLm0EEEEEENS2_ImJLm0ELm1EEEEJNS_6ranges5views12__split_view4__fnENS_5tupleIJcEEEEEclB7v160006IJRNS_17basic_string_viewIcNS_11char_traitsIcEEEEEvEEDTclcvS4__EclL_ZNS_3getB7v160006ILm0EJS9_SB_EEEONS_13tuple_elementIXT_ENSA_IJDpT0_EEEE4typeEOSN_EclL_ZNS_4moveB7v160006IRNSA_IJS9_SB_EEEEEOu20__remove_reference_tIT_EOSV_EdtdefpT13__bound_args_EEclL_ZNSJ_ILm1EJS9_SB_EEESQ_SR_EclL_ZNSS_ISU_EESX_SY_EdtdefpT13__bound_args_EEspclsr3stdE7forwardIT_Efp_EEEDpOSZ_, symObjAddr: 0x12B4, symBinAddr: 0x10000497C, symSize: 0x5C }
  - { offsetInCU: 0x1BBC9, offset: 0x1BBC9, size: 0x8, addend: 0x0, symName: __ZNKSt3__114__bind_back_opILm1ENS_16integer_sequenceImJLm0EEEEEclB7v160006INS_6ranges5views12__split_view4__fnENS_5tupleIJcEEEJRNS_17basic_string_viewIcNS_11char_traitsIcEEEEEEEDTclsr3stdE6invokeclsr3stdE7forwardIT_Efp_Espclsr3stdE7forwardIT1_Efp1_Eclsr3stdE3getIXLm0EEEclsr3stdE7forwardIT0_Efp0_EEEEOSG_OSI_DpOSH_, symObjAddr: 0x1310, symBinAddr: 0x1000049D8, symSize: 0x5C }
  - { offsetInCU: 0x1BC36, offset: 0x1BC36, size: 0x8, addend: 0x0, symName: __ZNKSt3__16ranges5views12__split_view4__fnclB7v160006IRNS_17basic_string_viewIcNS_11char_traitsIcEEEEcEEDTcvNS0_10split_viewE_clsr3stdE7forwardIT_Efp_Eclsr3stdE7forwardIT0_Efp0_EEEOSB_OSC_, symObjAddr: 0x1450, symBinAddr: 0x100004B18, symSize: 0x48 }
  - { offsetInCU: 0x1BC8A, offset: 0x1BC8A, size: 0x8, addend: 0x0, symName: __ZNSt3__16ranges10split_viewINS_17basic_string_viewIcNS_11char_traitsIcEEEENS0_11single_viewIcEEEC1B7v160006IRS5_EEOT_NS_11conditionalIXsr21__is_primary_templateINS_15iterator_traitsIu14__remove_cvrefIDTclL_ZNS0_5__cpo5beginEEclsr3stdE7declvalIRSB_EEEEEEEEE5valueENS_26indirectly_readable_traitsISI_EESJ_E4type10value_typeE, symObjAddr: 0x1498, symBinAddr: 0x100004B60, symSize: 0x3C }
  - { offsetInCU: 0x1BCD9, offset: 0x1BCD9, size: 0x8, addend: 0x0, symName: __ZNSt3__16ranges10split_viewINS_17basic_string_viewIcNS_11char_traitsIcEEEENS0_11single_viewIcEEEC2B7v160006IRS5_EEOT_NS_11conditionalIXsr21__is_primary_templateINS_15iterator_traitsIu14__remove_cvrefIDTclL_ZNS0_5__cpo5beginEEclsr3stdE7declvalIRSB_EEEEEEEEE5valueENS_26indirectly_readable_traitsISI_EESJ_E4type10value_typeE, symObjAddr: 0x14D4, symBinAddr: 0x100004B9C, symSize: 0x84 }
  - { offsetInCU: 0x1BD2E, offset: 0x1BD2E, size: 0x8, addend: 0x0, symName: __ZNKSt3__16ranges5views5__all4__fnclB7v160006IRNS_17basic_string_viewIcNS_11char_traitsIcEEEEEEDTscNS_5decayIDTclsr3stdE7forwardIT_Efp_EEE4typeEclsr3stdE7forwardISB_Efp_EEOSB_, symObjAddr: 0x1558, symBinAddr: 0x100004C20, symSize: 0x28 }
  - { offsetInCU: 0x1BD71, offset: 0x1BD71, size: 0x8, addend: 0x0, symName: __ZNKSt3__16ranges5views13__single_view4__fnclB7v160006IcEEDTcvNS0_11single_viewINS_5decayIOT_E4typeEEEclsr3stdE7forwardIS7_Efp_EES8_, symObjAddr: 0x1580, symBinAddr: 0x100004C48, symSize: 0x30 }
  - { offsetInCU: 0x1BDAE, offset: 0x1BDAE, size: 0x8, addend: 0x0, symName: __ZNSt3__16ranges23__non_propagating_cacheINS0_8subrangeIPKcS4_LNS0_13subrange_kindE1EEEEC1B7v160006Ev, symObjAddr: 0x15B0, symBinAddr: 0x100004C78, symSize: 0x2C }
  - { offsetInCU: 0x1BDD8, offset: 0x1BDD8, size: 0x8, addend: 0x0, symName: __ZNSt3__16ranges11single_viewIcEC1B7v160006EOc, symObjAddr: 0x15DC, symBinAddr: 0x100004CA4, symSize: 0x34 }
  - { offsetInCU: 0x1BE10, offset: 0x1BE10, size: 0x8, addend: 0x0, symName: __ZNSt3__16ranges11single_viewIcEC2B7v160006EOc, symObjAddr: 0x1610, symBinAddr: 0x100004CD8, symSize: 0x34 }
  - { offsetInCU: 0x1BE48, offset: 0x1BE48, size: 0x8, addend: 0x0, symName: __ZNSt3__16ranges14__copyable_boxIcEC1B7v160006IJcEEENS_10in_place_tEDpOT_, symObjAddr: 0x1644, symBinAddr: 0x100004D0C, symSize: 0x34 }
  - { offsetInCU: 0x1BE96, offset: 0x1BE96, size: 0x8, addend: 0x0, symName: __ZNSt3__16ranges14__copyable_boxIcEC2B7v160006IJcEEENS_10in_place_tEDpOT_, symObjAddr: 0x1678, symBinAddr: 0x100004D40, symSize: 0x24 }
  - { offsetInCU: 0x1BEE4, offset: 0x1BEE4, size: 0x8, addend: 0x0, symName: __ZNSt3__16ranges23__non_propagating_cacheINS0_8subrangeIPKcS4_LNS0_13subrange_kindE1EEEEC2B7v160006Ev, symObjAddr: 0x169C, symBinAddr: 0x100004D64, symSize: 0x2C }
  - { offsetInCU: 0x1BF0E, offset: 0x1BF0E, size: 0x8, addend: 0x0, symName: __ZNSt3__18optionalINS_6ranges23__non_propagating_cacheINS1_8subrangeIPKcS5_LNS1_13subrange_kindE1EEEE9__wrapperEEC1B7v160006ENS_9nullopt_tE, symObjAddr: 0x16C8, symBinAddr: 0x100004D90, symSize: 0x2C }
  - { offsetInCU: 0x1BF44, offset: 0x1BF44, size: 0x8, addend: 0x0, symName: __ZNSt3__18optionalINS_6ranges23__non_propagating_cacheINS1_8subrangeIPKcS5_LNS1_13subrange_kindE1EEEE9__wrapperEEC2B7v160006ENS_9nullopt_tE, symObjAddr: 0x16F4, symBinAddr: 0x100004DBC, symSize: 0x2C }
  - { offsetInCU: 0x1BF80, offset: 0x1BF80, size: 0x8, addend: 0x0, symName: __ZNSt3__127__optional_move_assign_baseINS_6ranges23__non_propagating_cacheINS1_8subrangeIPKcS5_LNS1_13subrange_kindE1EEEE9__wrapperELb1EEC2Ev, symObjAddr: 0x1720, symBinAddr: 0x100004DE8, symSize: 0x2C }
  - { offsetInCU: 0x1BFB3, offset: 0x1BFB3, size: 0x8, addend: 0x0, symName: __ZNSt3__127__optional_copy_assign_baseINS_6ranges23__non_propagating_cacheINS1_8subrangeIPKcS5_LNS1_13subrange_kindE1EEEE9__wrapperELb1EEC2Ev, symObjAddr: 0x174C, symBinAddr: 0x100004E14, symSize: 0x2C }
  - { offsetInCU: 0x1BFE6, offset: 0x1BFE6, size: 0x8, addend: 0x0, symName: __ZNSt3__120__optional_move_baseINS_6ranges23__non_propagating_cacheINS1_8subrangeIPKcS5_LNS1_13subrange_kindE1EEEE9__wrapperELb1EEC2Ev, symObjAddr: 0x1778, symBinAddr: 0x100004E40, symSize: 0x2C }
  - { offsetInCU: 0x1C019, offset: 0x1C019, size: 0x8, addend: 0x0, symName: __ZNSt3__120__optional_copy_baseINS_6ranges23__non_propagating_cacheINS1_8subrangeIPKcS5_LNS1_13subrange_kindE1EEEE9__wrapperELb1EEC2Ev, symObjAddr: 0x17A4, symBinAddr: 0x100004E6C, symSize: 0x2C }
  - { offsetInCU: 0x1C046, offset: 0x1C046, size: 0x8, addend: 0x0, symName: __ZNSt3__123__optional_storage_baseINS_6ranges23__non_propagating_cacheINS1_8subrangeIPKcS5_LNS1_13subrange_kindE1EEEE9__wrapperELb0EEC2Ev, symObjAddr: 0x17D0, symBinAddr: 0x100004E98, symSize: 0x2C }
  - { offsetInCU: 0x1C073, offset: 0x1C073, size: 0x8, addend: 0x0, symName: __ZNSt3__124__optional_destruct_baseINS_6ranges23__non_propagating_cacheINS1_8subrangeIPKcS5_LNS1_13subrange_kindE1EEEE9__wrapperELb1EEC2B7v160006Ev, symObjAddr: 0x17FC, symBinAddr: 0x100004EC4, symSize: 0x1C }
  - { offsetInCU: 0x1C09D, offset: 0x1C09D, size: 0x8, addend: 0x0, symName: __ZNSt3__112__tuple_leafILm0EcLb0EE3getB7v160006Ev, symObjAddr: 0x1818, symBinAddr: 0x100004EE0, symSize: 0x14 }
  - { offsetInCU: 0x1C0C3, offset: 0x1C0C3, size: 0x8, addend: 0x0, symName: __ZNSt3__112__tuple_leafILm0ENS_6ranges5views12__split_view4__fnELb1EE3getB7v160006Ev, symObjAddr: 0x182C, symBinAddr: 0x100004EF4, symSize: 0x14 }
  - { offsetInCU: 0x1C0E9, offset: 0x1C0E9, size: 0x8, addend: 0x0, symName: __ZNSt3__112__tuple_leafILm1ENS_5tupleIJcEEELb0EE3getB7v160006Ev, symObjAddr: 0x1840, symBinAddr: 0x100004F08, symSize: 0x14 }
  - { offsetInCU: 0x1C10F, offset: 0x1C10F, size: 0x8, addend: 0x0, symName: __ZNSt3__125__range_adaptor_closure_tINS_13__bind_back_tINS_6ranges5views12__split_view4__fnENS_5tupleIJcEEEEEEC1EOS8_, symObjAddr: 0x18A8, symBinAddr: 0x100004F70, symSize: 0x34 }
  - { offsetInCU: 0x1C14D, offset: 0x1C14D, size: 0x8, addend: 0x0, symName: __ZNSt3__113__bind_back_tINS_6ranges5views12__split_view4__fnENS_5tupleIJcEEEECI1NS_22__perfect_forward_implINS_14__bind_back_opILm1ENS_16integer_sequenceImJLm0EEEEEENSA_ImJLm0ELm1EEEEJS4_S6_EEEIJRKS4_NS5_IJOcEEEEvEEDpOT_, symObjAddr: 0x1908, symBinAddr: 0x100004FD0, symSize: 0x3C }
  - { offsetInCU: 0x1C18B, offset: 0x1C18B, size: 0x8, addend: 0x0, symName: __ZNSt3__15tupleIJOcEEC1B7v160006IJcELi0EEEDpOT_, symObjAddr: 0x1944, symBinAddr: 0x10000500C, symSize: 0x34 }
  - { offsetInCU: 0x1C1D5, offset: 0x1C1D5, size: 0x8, addend: 0x0, symName: __ZNSt3__15tupleIJOcEEC2B7v160006IJcELi0EEEDpOT_, symObjAddr: 0x1978, symBinAddr: 0x100005040, symSize: 0x34 }
  - { offsetInCU: 0x1C21F, offset: 0x1C21F, size: 0x8, addend: 0x0, symName: __ZNSt3__112__tuple_implINS_15__tuple_indicesIJLm0EEEEJOcEEC1B7v160006IJLm0EEJS3_EJEJEJcEEENS1_IJXspT_EEEENS_13__tuple_typesIJDpT0_EEENS1_IJXspT1_EEEENS7_IJDpT2_EEEDpOT3_, symObjAddr: 0x19AC, symBinAddr: 0x100005074, symSize: 0x34 }
  - { offsetInCU: 0x1C2B4, offset: 0x1C2B4, size: 0x8, addend: 0x0, symName: __ZNSt3__112__tuple_implINS_15__tuple_indicesIJLm0EEEEJOcEEC2B7v160006IJLm0EEJS3_EJEJEJcEEENS1_IJXspT_EEEENS_13__tuple_typesIJDpT0_EEENS1_IJXspT1_EEEENS7_IJDpT2_EEEDpOT3_, symObjAddr: 0x19E0, symBinAddr: 0x1000050A8, symSize: 0x34 }
  - { offsetInCU: 0x1C349, offset: 0x1C349, size: 0x8, addend: 0x0, symName: __ZNSt3__112__tuple_leafILm0EOcLb0EEC2B7v160006IcvEEOT_, symObjAddr: 0x1A14, symBinAddr: 0x1000050DC, symSize: 0x20 }
  - { offsetInCU: 0x1C38C, offset: 0x1C38C, size: 0x8, addend: 0x0, symName: __ZNSt3__113__bind_back_tINS_6ranges5views12__split_view4__fnENS_5tupleIJcEEEECI2NS_22__perfect_forward_implINS_14__bind_back_opILm1ENS_16integer_sequenceImJLm0EEEEEENSA_ImJLm0ELm1EEEEJS4_S6_EEEIJRKS4_NS5_IJOcEEEEvEEDpOT_, symObjAddr: 0x1A34, symBinAddr: 0x1000050FC, symSize: 0x3C }
  - { offsetInCU: 0x1C3CA, offset: 0x1C3CA, size: 0x8, addend: 0x0, symName: __ZNSt3__122__perfect_forward_implINS_14__bind_back_opILm1ENS_16integer_sequenceImJLm0EEEEEENS2_ImJLm0ELm1EEEEJNS_6ranges5views12__split_view4__fnENS_5tupleIJcEEEEEC2IJRKS9_NSA_IJOcEEEEvEEDpOT_, symObjAddr: 0x1A70, symBinAddr: 0x100005138, symSize: 0x3C }
  - { offsetInCU: 0x1C421, offset: 0x1C421, size: 0x8, addend: 0x0, symName: __ZNSt3__15tupleIJNS_6ranges5views12__split_view4__fnENS0_IJcEEEEEC1B7v160006IJRKS4_NS0_IJOcEEEELi0EEEDpOT_, symObjAddr: 0x1AAC, symBinAddr: 0x100005174, symSize: 0x3C }
  - { offsetInCU: 0x1C47F, offset: 0x1C47F, size: 0x8, addend: 0x0, symName: __ZNSt3__15tupleIJNS_6ranges5views12__split_view4__fnENS0_IJcEEEEEC2B7v160006IJRKS4_NS0_IJOcEEEELi0EEEDpOT_, symObjAddr: 0x1AE8, symBinAddr: 0x1000051B0, symSize: 0x3C }
  - { offsetInCU: 0x1C4DD, offset: 0x1C4DD, size: 0x8, addend: 0x0, symName: __ZNSt3__112__tuple_implINS_15__tuple_indicesIJLm0ELm1EEEEJNS_6ranges5views12__split_view4__fnENS_5tupleIJcEEEEEC1B7v160006IJLm0ELm1EEJS6_S8_EJEJEJRKS6_NS7_IJOcEEEEEENS1_IJXspT_EEEENS_13__tuple_typesIJDpT0_EEENS1_IJXspT1_EEEENSG_IJDpT2_EEEDpOT3_, symObjAddr: 0x1B24, symBinAddr: 0x1000051EC, symSize: 0x3C }
  - { offsetInCU: 0x1C591, offset: 0x1C591, size: 0x8, addend: 0x0, symName: __ZNSt3__112__tuple_implINS_15__tuple_indicesIJLm0ELm1EEEEJNS_6ranges5views12__split_view4__fnENS_5tupleIJcEEEEEC2B7v160006IJLm0ELm1EEJS6_S8_EJEJEJRKS6_NS7_IJOcEEEEEENS1_IJXspT_EEEENS_13__tuple_typesIJDpT0_EEENS1_IJXspT1_EEEENSG_IJDpT2_EEEDpOT3_, symObjAddr: 0x1B60, symBinAddr: 0x100005228, symSize: 0x44 }
  - { offsetInCU: 0x1C645, offset: 0x1C645, size: 0x8, addend: 0x0, symName: __ZNSt3__112__tuple_leafILm0ENS_6ranges5views12__split_view4__fnELb1EEC2B7v160006IRKS4_vEEOT_, symObjAddr: 0x1BA4, symBinAddr: 0x10000526C, symSize: 0x18 }
  - { offsetInCU: 0x1C688, offset: 0x1C688, size: 0x8, addend: 0x0, symName: __ZNSt3__112__tuple_leafILm1ENS_5tupleIJcEEELb0EEC2B7v160006INS1_IJOcEEEvEEOT_, symObjAddr: 0x1BBC, symBinAddr: 0x100005284, symSize: 0x34 }
  - { offsetInCU: 0x1C6CB, offset: 0x1C6CB, size: 0x8, addend: 0x0, symName: __ZNSt3__15tupleIJcEEC1B7v160006IJOcELi0EEEONS0_IJDpT_EEE, symObjAddr: 0x1BF0, symBinAddr: 0x1000052B8, symSize: 0x34 }
  - { offsetInCU: 0x1C715, offset: 0x1C715, size: 0x8, addend: 0x0, symName: __ZNSt3__15tupleIJcEEC2B7v160006IJOcELi0EEEONS0_IJDpT_EEE, symObjAddr: 0x1C24, symBinAddr: 0x1000052EC, symSize: 0x34 }
  - { offsetInCU: 0x1C75F, offset: 0x1C75F, size: 0x8, addend: 0x0, symName: __ZNSt3__112__tuple_implINS_15__tuple_indicesIJLm0EEEEJcEEC1B7v160006INS_5tupleIJOcEEEvEEOT_, symObjAddr: 0x1C58, symBinAddr: 0x100005320, symSize: 0x34 }
  - { offsetInCU: 0x1C7A2, offset: 0x1C7A2, size: 0x8, addend: 0x0, symName: __ZNSt3__112__tuple_implINS_15__tuple_indicesIJLm0EEEEJcEEC2B7v160006INS_5tupleIJOcEEEvEEOT_, symObjAddr: 0x1C8C, symBinAddr: 0x100005354, symSize: 0x40 }
  - { offsetInCU: 0x1C7E5, offset: 0x1C7E5, size: 0x8, addend: 0x0, symName: __ZNSt3__112__tuple_leafILm0EcLb0EEC2B7v160006IcvEEOT_, symObjAddr: 0x1CF0, symBinAddr: 0x1000053B8, symSize: 0x24 }
  - { offsetInCU: 0x1C828, offset: 0x1C828, size: 0x8, addend: 0x0, symName: __ZNSt3__112__tuple_leafILm0EOcLb0EE3getB7v160006Ev, symObjAddr: 0x1D14, symBinAddr: 0x1000053DC, symSize: 0x18 }
  - { offsetInCU: 0x1C84E, offset: 0x1C84E, size: 0x8, addend: 0x0, symName: __ZNSt3__125__range_adaptor_closure_tINS_13__bind_back_tINS_6ranges5views12__split_view4__fnENS_5tupleIJcEEEEEEC2EOS8_, symObjAddr: 0x1D2C, symBinAddr: 0x1000053F4, symSize: 0x24 }
  - { offsetInCU: 0x1C886, offset: 0x1C886, size: 0x8, addend: 0x0, symName: __ZNKSt3__16ranges23__non_propagating_cacheINS0_8subrangeIPKcS4_LNS0_13subrange_kindE1EEEE11__has_valueB7v160006Ev, symObjAddr: 0x1D50, symBinAddr: 0x100005418, symSize: 0x28 }
  - { offsetInCU: 0x1C8B2, offset: 0x1C8B2, size: 0x8, addend: 0x0, symName: __ZNSt3__16ranges23__non_propagating_cacheINS0_8subrangeIPKcS4_LNS0_13subrange_kindE1EEEE9__emplaceB7v160006IJS6_EEERS6_DpOT_, symObjAddr: 0x1D78, symBinAddr: 0x100005440, symSize: 0x30 }
  - { offsetInCU: 0x1C8F1, offset: 0x1C8F1, size: 0x8, addend: 0x0, symName: __ZNSt3__16ranges10split_viewINS_17basic_string_viewIcNS_11char_traitsIcEEEENS0_11single_viewIcEEE11__find_nextB7v160006EPKc, symObjAddr: 0x1DA8, symBinAddr: 0x100005470, symSize: 0x138 }
  - { offsetInCU: 0x1C952, offset: 0x1C952, size: 0x8, addend: 0x0, symName: __ZNKSt3__16ranges7__begin4__fnclB7v160006IRNS_17basic_string_viewIcNS_11char_traitsIcEEEEEEDaOT_, symObjAddr: 0x1EE0, symBinAddr: 0x1000055A8, symSize: 0x28 }
  - { offsetInCU: 0x1C98F, offset: 0x1C98F, size: 0x8, addend: 0x0, symName: __ZNSt3__16ranges23__non_propagating_cacheINS0_8subrangeIPKcS4_LNS0_13subrange_kindE1EEEEdeB7v160006Ev, symObjAddr: 0x1F08, symBinAddr: 0x1000055D0, symSize: 0x24 }
  - { offsetInCU: 0x1C9B5, offset: 0x1C9B5, size: 0x8, addend: 0x0, symName: __ZNSt3__16ranges10split_viewINS_17basic_string_viewIcNS_11char_traitsIcEEEENS0_11single_viewIcEEE10__iteratorC1B7v160006ERS8_PKcNS0_8subrangeISC_SC_LNS0_13subrange_kindE1EEE, symObjAddr: 0x1F2C, symBinAddr: 0x1000055F4, symSize: 0x4C }
  - { offsetInCU: 0x1CA09, offset: 0x1CA09, size: 0x8, addend: 0x0, symName: __ZNKSt3__123__optional_storage_baseINS_6ranges23__non_propagating_cacheINS1_8subrangeIPKcS5_LNS1_13subrange_kindE1EEEE9__wrapperELb0EE9has_valueB7v160006Ev, symObjAddr: 0x1F78, symBinAddr: 0x100005640, symSize: 0x1C }
  - { offsetInCU: 0x1CA3B, offset: 0x1CA3B, size: 0x8, addend: 0x0, symName: __ZNSt3__18optionalINS_6ranges23__non_propagating_cacheINS1_8subrangeIPKcS5_LNS1_13subrange_kindE1EEEE9__wrapperEE7emplaceB7v160006IJNS8_13__forward_tagES7_EvEERS9_DpOT_, symObjAddr: 0x1F94, symBinAddr: 0x10000565C, symSize: 0x48 }
  - { offsetInCU: 0x1CA90, offset: 0x1CA90, size: 0x8, addend: 0x0, symName: __ZNSt3__124__optional_destruct_baseINS_6ranges23__non_propagating_cacheINS1_8subrangeIPKcS5_LNS1_13subrange_kindE1EEEE9__wrapperELb1EE5resetB7v160006Ev, symObjAddr: 0x1FDC, symBinAddr: 0x1000056A4, symSize: 0x30 }
  - { offsetInCU: 0x1CAB6, offset: 0x1CAB6, size: 0x8, addend: 0x0, symName: __ZNSt3__123__optional_storage_baseINS_6ranges23__non_propagating_cacheINS1_8subrangeIPKcS5_LNS1_13subrange_kindE1EEEE9__wrapperELb0EE11__constructB7v160006IJNS8_13__forward_tagES7_EEEvDpOT_, symObjAddr: 0x200C, symBinAddr: 0x1000056D4, symSize: 0x44 }
  - { offsetInCU: 0x1CB0A, offset: 0x1CB0A, size: 0x8, addend: 0x0, symName: __ZNRSt3__123__optional_storage_baseINS_6ranges23__non_propagating_cacheINS1_8subrangeIPKcS5_LNS1_13subrange_kindE1EEEE9__wrapperELb0EE5__getB7v160006Ev, symObjAddr: 0x2050, symBinAddr: 0x100005718, symSize: 0x14 }
  - { offsetInCU: 0x1CB36, offset: 0x1CB36, size: 0x8, addend: 0x0, symName: __ZNSt3__16ranges23__non_propagating_cacheINS0_8subrangeIPKcS4_LNS0_13subrange_kindE1EEEE9__wrapperC1IJS6_EEENS7_13__forward_tagEDpOT_, symObjAddr: 0x20A4, symBinAddr: 0x10000576C, symSize: 0x34 }
  - { offsetInCU: 0x1CB84, offset: 0x1CB84, size: 0x8, addend: 0x0, symName: __ZNSt3__16ranges23__non_propagating_cacheINS0_8subrangeIPKcS4_LNS0_13subrange_kindE1EEEE9__wrapperC2IJS6_EEENS7_13__forward_tagEDpOT_, symObjAddr: 0x20D8, symBinAddr: 0x1000057A0, symSize: 0x24 }
  - { offsetInCU: 0x1CBD8, offset: 0x1CBD8, size: 0x8, addend: 0x0, symName: __ZNKSt3__16ranges8__search4__fnclB7v160006INS0_8subrangeIPKcS6_LNS0_13subrange_kindE1EEERNS0_11single_viewIcEENS0_8equal_toENS_8identityESD_EENS_7_IfImplIXL_ZNS0_14borrowed_rangeIT_EEEEE7_SelectINS4_IDTclL_ZNS0_5__cpo5beginEEclsr3stdE7declvalIRSG_EEEESL_XquL_ZNS_18sized_sentinel_forISL_SL_EEELS7_1ELS7_0EEEENS0_8danglingEEEOSG_OT0_T1_T2_T3_, symObjAddr: 0x20FC, symBinAddr: 0x1000057C4, symSize: 0x164 }
  - { offsetInCU: 0x1CCBD, offset: 0x1CCBD, size: 0x8, addend: 0x0, symName: __ZNKSt3__16ranges5__end4__fnclB7v160006IRNS_17basic_string_viewIcNS_11char_traitsIcEEEEEEDaOT_, symObjAddr: 0x2260, symBinAddr: 0x100005928, symSize: 0x28 }
  - { offsetInCU: 0x1CCFA, offset: 0x1CCFA, size: 0x8, addend: 0x0, symName: __ZNSt3__16ranges8subrangeIPKcS3_LNS0_13subrange_kindE1EEC1B7v160006IS3_EET_S3_, symObjAddr: 0x2288, symBinAddr: 0x100005950, symSize: 0x3C }
  - { offsetInCU: 0x1CD4F, offset: 0x1CD4F, size: 0x8, addend: 0x0, symName: __ZNKSt3__16ranges7__empty4__fnclB7v160006IRNS0_11single_viewIcEEEEbOT_, symObjAddr: 0x230C, symBinAddr: 0x1000059D4, symSize: 0x2C }
  - { offsetInCU: 0x1CD8C, offset: 0x1CD8C, size: 0x8, addend: 0x0, symName: __ZNKSt3__16ranges7__begin4__fnclB7v160006IRNS0_8subrangeIPKcS6_LNS0_13subrange_kindE1EEEEEDaOT_, symObjAddr: 0x2338, symBinAddr: 0x100005A00, symSize: 0x28 }
  - { offsetInCU: 0x1CDCF, offset: 0x1CDCF, size: 0x8, addend: 0x0, symName: __ZNKSt3__16ranges6__size4__fnclB7v160006IRNS0_11single_viewIcEEEEDaOT_, symObjAddr: 0x2360, symBinAddr: 0x100005A28, symSize: 0x24 }
  - { offsetInCU: 0x1CE0C, offset: 0x1CE0C, size: 0x8, addend: 0x0, symName: __ZNKSt3__16ranges6__size4__fnclB7v160006IRNS0_8subrangeIPKcS6_LNS0_13subrange_kindE1EEEEEDaOT_, symObjAddr: 0x2384, symBinAddr: 0x100005A4C, symSize: 0x28 }
  - { offsetInCU: 0x1CE55, offset: 0x1CE55, size: 0x8, addend: 0x0, symName: __ZNKSt3__16ranges9__advance4__fnclB7v160006IPKcS5_EEvRT_T0_, symObjAddr: 0x23AC, symBinAddr: 0x100005A74, symSize: 0x24 }
  - { offsetInCU: 0x1CEA9, offset: 0x1CEA9, size: 0x8, addend: 0x0, symName: __ZNKSt3__16ranges5__end4__fnclB7v160006IRNS0_8subrangeIPKcS6_LNS0_13subrange_kindE1EEEEEDaOT_, symObjAddr: 0x23D0, symBinAddr: 0x100005A98, symSize: 0x28 }
  - { offsetInCU: 0x1CEF2, offset: 0x1CEF2, size: 0x8, addend: 0x0, symName: __ZNSt3__16ranges8__search4__fn20__ranges_search_implB7v160006IPKcS5_PcS6_NS0_8equal_toENS_8identityES8_EENS0_8subrangeIT_SA_XquL_ZNS_18sized_sentinel_forISA_SA_EEELNS0_13subrange_kindE1ELSC_0EEEESA_T0_T1_T2_RT3_RT4_RT5_, symObjAddr: 0x23F8, symBinAddr: 0x100005AC0, symSize: 0x120 }
  - { offsetInCU: 0x1CFFD, offset: 0x1CFFD, size: 0x8, addend: 0x0, symName: __ZNKSt3__16ranges7__begin4__fnclB7v160006IRNS0_11single_viewIcEEEEDaOT_, symObjAddr: 0x2518, symBinAddr: 0x100005BE0, symSize: 0x28 }
  - { offsetInCU: 0x1D03A, offset: 0x1D03A, size: 0x8, addend: 0x0, symName: __ZNKSt3__16ranges5__end4__fnclB7v160006IRNS0_11single_viewIcEEEEDaOT_, symObjAddr: 0x2540, symBinAddr: 0x100005C08, symSize: 0x28 }
  - { offsetInCU: 0x1D077, offset: 0x1D077, size: 0x8, addend: 0x0, symName: __ZNKSt3__16ranges8subrangeIPKcS3_LNS0_13subrange_kindE1EE5beginB7v160006Ev, symObjAddr: 0x2568, symBinAddr: 0x100005C30, symSize: 0x18 }
  - { offsetInCU: 0x1D09D, offset: 0x1D09D, size: 0x8, addend: 0x0, symName: __ZNSt3__16ranges11single_viewIcE4sizeB7v160006Ev, symObjAddr: 0x2580, symBinAddr: 0x100005C48, symSize: 0x8 }
  - { offsetInCU: 0x1D0B1, offset: 0x1D0B1, size: 0x8, addend: 0x0, symName: __ZNKSt3__16ranges8subrangeIPKcS3_LNS0_13subrange_kindE1EE4sizeB7v160006Ev, symObjAddr: 0x2588, symBinAddr: 0x100005C50, symSize: 0x30 }
  - { offsetInCU: 0x1D0D7, offset: 0x1D0D7, size: 0x8, addend: 0x0, symName: __ZNKSt3__16ranges8subrangeIPKcS3_LNS0_13subrange_kindE1EE3endB7v160006Ev, symObjAddr: 0x25CC, symBinAddr: 0x100005C94, symSize: 0x18 }
  - { offsetInCU: 0x1D109, offset: 0x1D109, size: 0x8, addend: 0x0, symName: __ZNKSt3__16ranges10__distance4__fnclB7v160006IRPcS4_EENS_11conditionalIXsr21__is_primary_templateINS_15iterator_traitsIu14__remove_cvrefIT_EEEEE5valueENS_20incrementable_traitsIS9_EESA_E4type15difference_typeEOS8_T0_, symObjAddr: 0x25E4, symBinAddr: 0x100005CAC, symSize: 0x28 }
  - { offsetInCU: 0x1D15D, offset: 0x1D15D, size: 0x8, addend: 0x0, symName: __ZNKSt3__16ranges10__distance4__fnclB7v160006IRPKcS5_EENS_11conditionalIXsr21__is_primary_templateINS_15iterator_traitsIu14__remove_cvrefIT_EEEEE5valueENS_20incrementable_traitsISA_EESB_E4type15difference_typeEOS9_T0_, symObjAddr: 0x260C, symBinAddr: 0x100005CD4, symSize: 0x28 }
  - { offsetInCU: 0x1D1D4, offset: 0x1D1D4, size: 0x8, addend: 0x0, symName: __ZNSt3__14pairIPKcS2_EC1B7v160006IRS2_S5_LPv0EEEOT_OT0_, symObjAddr: 0x28F8, symBinAddr: 0x100005FC0, symSize: 0x3C }
  - { offsetInCU: 0x1D232, offset: 0x1D232, size: 0x8, addend: 0x0, symName: __ZNSt3__14pairIPKcS2_EC2B7v160006IRS2_S5_LPv0EEEOT_OT0_, symObjAddr: 0x2934, symBinAddr: 0x100005FFC, symSize: 0x34 }
  - { offsetInCU: 0x1D29B, offset: 0x1D29B, size: 0x8, addend: 0x0, symName: __ZNKSt3__16ranges8equal_toclIRKcRcEEbOT_OT0_, symObjAddr: 0x2968, symBinAddr: 0x100006030, symSize: 0x34 }
  - { offsetInCU: 0x1D2FA, offset: 0x1D2FA, size: 0x8, addend: 0x0, symName: __ZNKSt3__18identityclIRKcEEOT_S5_, symObjAddr: 0x299C, symBinAddr: 0x100006064, symSize: 0x18 }
  - { offsetInCU: 0x1D337, offset: 0x1D337, size: 0x8, addend: 0x0, symName: __ZNKSt3__18identityclIRcEEOT_S4_, symObjAddr: 0x29B4, symBinAddr: 0x10000607C, symSize: 0x18 }
  - { offsetInCU: 0x1D37A, offset: 0x1D37A, size: 0x8, addend: 0x0, symName: __ZNSt3__14pairIPKcS2_EC1B7v160006IRS2_S2_LPv0EEEOT_OT0_, symObjAddr: 0x29CC, symBinAddr: 0x100006094, symSize: 0x3C }
  - { offsetInCU: 0x1D3D8, offset: 0x1D3D8, size: 0x8, addend: 0x0, symName: __ZNSt3__14pairIPKcS2_EC2B7v160006IRS2_S2_LPv0EEEOT_OT0_, symObjAddr: 0x2A08, symBinAddr: 0x1000060D0, symSize: 0x34 }
  - { offsetInCU: 0x1D436, offset: 0x1D436, size: 0x8, addend: 0x0, symName: __ZNSt3__16ranges11single_viewIcE5beginB7v160006Ev, symObjAddr: 0x2A3C, symBinAddr: 0x100006104, symSize: 0x24 }
  - { offsetInCU: 0x1D45C, offset: 0x1D45C, size: 0x8, addend: 0x0, symName: __ZNSt3__16ranges11single_viewIcE4dataB7v160006Ev, symObjAddr: 0x2A60, symBinAddr: 0x100006128, symSize: 0x24 }
  - { offsetInCU: 0x1D482, offset: 0x1D482, size: 0x8, addend: 0x0, symName: __ZNSt3__16ranges14__copyable_boxIcEptB7v160006Ev, symObjAddr: 0x2A84, symBinAddr: 0x10000614C, symSize: 0x14 }
  - { offsetInCU: 0x1D4A8, offset: 0x1D4A8, size: 0x8, addend: 0x0, symName: __ZNSt3__16ranges11single_viewIcE3endB7v160006Ev, symObjAddr: 0x2A98, symBinAddr: 0x100006160, symSize: 0x28 }
  - { offsetInCU: 0x1D4CE, offset: 0x1D4CE, size: 0x8, addend: 0x0, symName: __ZNKSt3__117basic_string_viewIcNS_11char_traitsIcEEE3endB7v160006Ev, symObjAddr: 0x2AC0, symBinAddr: 0x100006188, symSize: 0x24 }
  - { offsetInCU: 0x1D4F4, offset: 0x1D4F4, size: 0x8, addend: 0x0, symName: __ZNKSt3__117basic_string_viewIcNS_11char_traitsIcEEE4cendB7v160006Ev, symObjAddr: 0x2AE4, symBinAddr: 0x1000061AC, symSize: 0x20 }
  - { offsetInCU: 0x1D51A, offset: 0x1D51A, size: 0x8, addend: 0x0, symName: __ZNSt3__16ranges8subrangeIPKcS3_LNS0_13subrange_kindE1EEC2B7v160006IS3_EET_S3_, symObjAddr: 0x2B04, symBinAddr: 0x1000061CC, symSize: 0x48 }
  - { offsetInCU: 0x1D56F, offset: 0x1D56F, size: 0x8, addend: 0x0, symName: __ZNSt3__16ranges8subrangeIPKcS3_LNS0_13subrange_kindE1EE6_EmptyC1IiEET_, symObjAddr: 0x2B4C, symBinAddr: 0x100006214, symSize: 0x34 }
  - { offsetInCU: 0x1D5AD, offset: 0x1D5AD, size: 0x8, addend: 0x0, symName: __ZNSt3__16ranges8subrangeIPKcS3_LNS0_13subrange_kindE1EE6_EmptyC2IiEET_, symObjAddr: 0x2B80, symBinAddr: 0x100006248, symSize: 0x18 }
  - { offsetInCU: 0x1D5EB, offset: 0x1D5EB, size: 0x8, addend: 0x0, symName: __ZNSt3__16ranges14view_interfaceINS0_11single_viewIcEEE5emptyB7v160006IS3_EEbv, symObjAddr: 0x2B98, symBinAddr: 0x100006260, symSize: 0x6C }
  - { offsetInCU: 0x1D61A, offset: 0x1D61A, size: 0x8, addend: 0x0, symName: __ZNSt3__16ranges14view_interfaceINS0_11single_viewIcEEE9__derivedB7v160006Ev, symObjAddr: 0x2C04, symBinAddr: 0x1000062CC, symSize: 0x14 }
  - { offsetInCU: 0x1D640, offset: 0x1D640, size: 0x8, addend: 0x0, symName: __ZNKSt3__117basic_string_viewIcNS_11char_traitsIcEEE5beginB7v160006Ev, symObjAddr: 0x2C18, symBinAddr: 0x1000062E0, symSize: 0x24 }
  - { offsetInCU: 0x1D666, offset: 0x1D666, size: 0x8, addend: 0x0, symName: __ZNKSt3__117basic_string_viewIcNS_11char_traitsIcEEE6cbeginB7v160006Ev, symObjAddr: 0x2C3C, symBinAddr: 0x100006304, symSize: 0x18 }
  - { offsetInCU: 0x1D68C, offset: 0x1D68C, size: 0x8, addend: 0x0, symName: __ZNSt3__18optionalINS_6ranges23__non_propagating_cacheINS1_8subrangeIPKcS5_LNS1_13subrange_kindE1EEEE9__wrapperEEptB7v160006Ev, symObjAddr: 0x2C54, symBinAddr: 0x10000631C, symSize: 0x24 }
  - { offsetInCU: 0x1D6B2, offset: 0x1D6B2, size: 0x8, addend: 0x0, symName: __ZNSt3__16ranges10split_viewINS_17basic_string_viewIcNS_11char_traitsIcEEEENS0_11single_viewIcEEE10__iteratorC2B7v160006ERS8_PKcNS0_8subrangeISC_SC_LNS0_13subrange_kindE1EEE, symObjAddr: 0x2C78, symBinAddr: 0x100006340, symSize: 0x40 }
  - { offsetInCU: 0x1D706, offset: 0x1D706, size: 0x8, addend: 0x0, symName: __ZNSt3__16ranges8subrangeIPKcS3_LNS0_13subrange_kindE1EEC1B7v160006Ev, symObjAddr: 0x2CB8, symBinAddr: 0x100006380, symSize: 0x2C }
  - { offsetInCU: 0x1D730, offset: 0x1D730, size: 0x8, addend: 0x0, symName: __ZNSt3__16ranges8subrangeIPKcS3_LNS0_13subrange_kindE1EEC2B7v160006Ev, symObjAddr: 0x2CE4, symBinAddr: 0x1000063AC, symSize: 0x38 }
  - { offsetInCU: 0x1D75A, offset: 0x1D75A, size: 0x8, addend: 0x0, symName: __ZNSt3__16vectorINS_17basic_string_viewIcNS_11char_traitsIcEEEENS_9allocatorIS4_EEEC2INS_6ranges10split_viewIS4_NS9_11single_viewIcEEE10__iteratorELi0EEET_SF_, symObjAddr: 0x2D1C, symBinAddr: 0x1000063E4, symSize: 0x120 }
  - { offsetInCU: 0x1D7D7, offset: 0x1D7D7, size: 0x8, addend: 0x0, symName: __ZNSt3__117__compressed_pairIPNS_17basic_string_viewIcNS_11char_traitsIcEEEENS_9allocatorIS4_EEEC1B7v160006IDnNS_18__default_init_tagEEEOT_OT0_, symObjAddr: 0x2E3C, symBinAddr: 0x100006504, symSize: 0x3C }
  - { offsetInCU: 0x1D82F, offset: 0x1D82F, size: 0x8, addend: 0x0, symName: __ZNSt3__16vectorINS_17basic_string_viewIcNS_11char_traitsIcEEEENS_9allocatorIS4_EEE16__destroy_vectorC1ERS7_, symObjAddr: 0x2EB8, symBinAddr: 0x100006580, symSize: 0x34 }
  - { offsetInCU: 0x1D868, offset: 0x1D868, size: 0x8, addend: 0x0, symName: __ZNSt3__16vectorINS_17basic_string_viewIcNS_11char_traitsIcEEEENS_9allocatorIS4_EEE12emplace_backIJNS_6ranges8subrangeIPKcSC_LNS9_13subrange_kindE1EEEEEERS4_DpOT_, symObjAddr: 0x2F68, symBinAddr: 0x100006630, symSize: 0x74 }
  - { offsetInCU: 0x1D8AA, offset: 0x1D8AA, size: 0x8, addend: 0x0, symName: __ZNKSt3__16ranges10split_viewINS_17basic_string_viewIcNS_11char_traitsIcEEEENS0_11single_viewIcEEE10__iteratordeB7v160006Ev, symObjAddr: 0x2FDC, symBinAddr: 0x1000066A4, symSize: 0x48 }
  - { offsetInCU: 0x1D8D0, offset: 0x1D8D0, size: 0x8, addend: 0x0, symName: __ZNSt3__16ranges10split_viewINS_17basic_string_viewIcNS_11char_traitsIcEEEENS0_11single_viewIcEEE10__iteratorppB7v160006Ev, symObjAddr: 0x3024, symBinAddr: 0x1000066EC, symSize: 0x108 }
  - { offsetInCU: 0x1D8F6, offset: 0x1D8F6, size: 0x8, addend: 0x0, symName: __ZNSt3__128__exception_guard_exceptionsINS_6vectorINS_17basic_string_viewIcNS_11char_traitsIcEEEENS_9allocatorIS5_EEE16__destroy_vectorEE10__completeB7v160006Ev, symObjAddr: 0x312C, symBinAddr: 0x1000067F4, symSize: 0x1C }
  - { offsetInCU: 0x1D91C, offset: 0x1D91C, size: 0x8, addend: 0x0, symName: __ZNSt3__128__exception_guard_exceptionsINS_6vectorINS_17basic_string_viewIcNS_11char_traitsIcEEEENS_9allocatorIS5_EEE16__destroy_vectorEED1B7v160006Ev, symObjAddr: 0x3148, symBinAddr: 0x100006810, symSize: 0x2C }
  - { offsetInCU: 0x1D946, offset: 0x1D946, size: 0x8, addend: 0x0, symName: __ZNSt3__117__compressed_pairIPNS_17basic_string_viewIcNS_11char_traitsIcEEEENS_9allocatorIS4_EEEC2B7v160006IDnNS_18__default_init_tagEEEOT_OT0_, symObjAddr: 0x3174, symBinAddr: 0x10000683C, symSize: 0x40 }
  - { offsetInCU: 0x1D99E, offset: 0x1D99E, size: 0x8, addend: 0x0, symName: __ZNSt3__122__compressed_pair_elemIPNS_17basic_string_viewIcNS_11char_traitsIcEEEELi0ELb0EEC2B7v160006IDnvEEOT_, symObjAddr: 0x31B4, symBinAddr: 0x10000687C, symSize: 0x1C }
  - { offsetInCU: 0x1D9E0, offset: 0x1D9E0, size: 0x8, addend: 0x0, symName: __ZNSt3__122__compressed_pair_elemINS_9allocatorINS_17basic_string_viewIcNS_11char_traitsIcEEEEEELi1ELb1EEC2B7v160006ENS_18__default_init_tagE, symObjAddr: 0x31D0, symBinAddr: 0x100006898, symSize: 0x2C }
  - { offsetInCU: 0x1DA15, offset: 0x1DA15, size: 0x8, addend: 0x0, symName: __ZNSt3__19allocatorINS_17basic_string_viewIcNS_11char_traitsIcEEEEEC2B7v160006Ev, symObjAddr: 0x31FC, symBinAddr: 0x1000068C4, symSize: 0x2C }
  - { offsetInCU: 0x1DA3F, offset: 0x1DA3F, size: 0x8, addend: 0x0, symName: __ZNSt3__116__non_trivial_ifILb1ENS_9allocatorINS_17basic_string_viewIcNS_11char_traitsIcEEEEEEEC2B7v160006Ev, symObjAddr: 0x3228, symBinAddr: 0x1000068F0, symSize: 0x14 }
  - { offsetInCU: 0x1DA69, offset: 0x1DA69, size: 0x8, addend: 0x0, symName: __ZNSt3__128__exception_guard_exceptionsINS_6vectorINS_17basic_string_viewIcNS_11char_traitsIcEEEENS_9allocatorIS5_EEE16__destroy_vectorEEC1B7v160006ES9_, symObjAddr: 0x323C, symBinAddr: 0x100006904, symSize: 0x34 }
  - { offsetInCU: 0x1DAA1, offset: 0x1DAA1, size: 0x8, addend: 0x0, symName: __ZNSt3__128__exception_guard_exceptionsINS_6vectorINS_17basic_string_viewIcNS_11char_traitsIcEEEENS_9allocatorIS5_EEE16__destroy_vectorEEC2B7v160006ES9_, symObjAddr: 0x3270, symBinAddr: 0x100006938, symSize: 0x24 }
  - { offsetInCU: 0x1DAD9, offset: 0x1DAD9, size: 0x8, addend: 0x0, symName: __ZNSt3__16vectorINS_17basic_string_viewIcNS_11char_traitsIcEEEENS_9allocatorIS4_EEE16__destroy_vectorC2ERS7_, symObjAddr: 0x3294, symBinAddr: 0x10000695C, symSize: 0x20 }
  - { offsetInCU: 0x1DB12, offset: 0x1DB12, size: 0x8, addend: 0x0, symName: __ZNSt3__16vectorINS_17basic_string_viewIcNS_11char_traitsIcEEEENS_9allocatorIS4_EEE9__end_capB7v160006Ev, symObjAddr: 0x32B4, symBinAddr: 0x10000697C, symSize: 0x28 }
  - { offsetInCU: 0x1DB38, offset: 0x1DB38, size: 0x8, addend: 0x0, symName: __ZNSt3__16vectorINS_17basic_string_viewIcNS_11char_traitsIcEEEENS_9allocatorIS4_EEE22__construct_one_at_endB7v160006IJNS_6ranges8subrangeIPKcSC_LNS9_13subrange_kindE1EEEEEEvDpOT_, symObjAddr: 0x32DC, symBinAddr: 0x1000069A4, symSize: 0x90 }
  - { offsetInCU: 0x1DB87, offset: 0x1DB87, size: 0x8, addend: 0x0, symName: __ZNSt3__16vectorINS_17basic_string_viewIcNS_11char_traitsIcEEEENS_9allocatorIS4_EEE24__emplace_back_slow_pathIJNS_6ranges8subrangeIPKcSC_LNS9_13subrange_kindE1EEEEEEvDpOT_, symObjAddr: 0x336C, symBinAddr: 0x100006A34, symSize: 0xD8 }
  - { offsetInCU: 0x1DBE7, offset: 0x1DBE7, size: 0x8, addend: 0x0, symName: __ZNSt3__16vectorINS_17basic_string_viewIcNS_11char_traitsIcEEEENS_9allocatorIS4_EEE4backB7v160006Ev, symObjAddr: 0x3444, symBinAddr: 0x100006B0C, symSize: 0x1C }
  - { offsetInCU: 0x1DC0D, offset: 0x1DC0D, size: 0x8, addend: 0x0, symName: __ZNSt3__117__compressed_pairIPNS_17basic_string_viewIcNS_11char_traitsIcEEEENS_9allocatorIS4_EEE5firstB7v160006Ev, symObjAddr: 0x3460, symBinAddr: 0x100006B28, symSize: 0x24 }
  - { offsetInCU: 0x1DC33, offset: 0x1DC33, size: 0x8, addend: 0x0, symName: __ZNSt3__122__compressed_pair_elemIPNS_17basic_string_viewIcNS_11char_traitsIcEEEELi0ELb0EE5__getB7v160006Ev, symObjAddr: 0x3484, symBinAddr: 0x100006B4C, symSize: 0x14 }
  - { offsetInCU: 0x1DC75, offset: 0x1DC75, size: 0x8, addend: 0x0, symName: __ZNSt3__16vectorINS_17basic_string_viewIcNS_11char_traitsIcEEEENS_9allocatorIS4_EEE21_ConstructTransactionC1B7v160006ERS7_m, symObjAddr: 0x3498, symBinAddr: 0x100006B60, symSize: 0x3C }
  - { offsetInCU: 0x1DCBD, offset: 0x1DCBD, size: 0x8, addend: 0x0, symName: __ZNSt3__116allocator_traitsINS_9allocatorINS_17basic_string_viewIcNS_11char_traitsIcEEEEEEE9constructB7v160006IS5_JNS_6ranges8subrangeIPKcSC_LNS9_13subrange_kindE1EEEEvvEEvRS6_PT_DpOT0_, symObjAddr: 0x34D4, symBinAddr: 0x100006B9C, symSize: 0x30 }
  - { offsetInCU: 0x1DD12, offset: 0x1DD12, size: 0x8, addend: 0x0, symName: __ZNSt3__16vectorINS_17basic_string_viewIcNS_11char_traitsIcEEEENS_9allocatorIS4_EEE7__allocB7v160006Ev, symObjAddr: 0x3504, symBinAddr: 0x100006BCC, symSize: 0x28 }
  - { offsetInCU: 0x1DD38, offset: 0x1DD38, size: 0x8, addend: 0x0, symName: __ZNSt3__16vectorINS_17basic_string_viewIcNS_11char_traitsIcEEEENS_9allocatorIS4_EEE21_ConstructTransactionD1B7v160006Ev, symObjAddr: 0x3540, symBinAddr: 0x100006C08, symSize: 0x2C }
  - { offsetInCU: 0x1DD62, offset: 0x1DD62, size: 0x8, addend: 0x0, symName: __ZNSt3__16vectorINS_17basic_string_viewIcNS_11char_traitsIcEEEENS_9allocatorIS4_EEE21_ConstructTransactionC2B7v160006ERS7_m, symObjAddr: 0x356C, symBinAddr: 0x100006C34, symSize: 0x44 }
  - { offsetInCU: 0x1DDB0, offset: 0x1DDB0, size: 0x8, addend: 0x0, symName: __ZNSt3__117basic_string_viewIcNS_11char_traitsIcEEEC1B7v160006INS_6ranges8subrangeIPKcS8_LNS5_13subrange_kindE1EEEEEOT_, symObjAddr: 0x35EC, symBinAddr: 0x100006CB4, symSize: 0x34 }
  - { offsetInCU: 0x1DDF2, offset: 0x1DDF2, size: 0x8, addend: 0x0, symName: __ZNSt3__117basic_string_viewIcNS_11char_traitsIcEEEC2B7v160006INS_6ranges8subrangeIPKcS8_LNS5_13subrange_kindE1EEEEEOT_, symObjAddr: 0x3620, symBinAddr: 0x100006CE8, symSize: 0x5C }
  - { offsetInCU: 0x1DE3A, offset: 0x1DE3A, size: 0x8, addend: 0x0, symName: __ZNKSt3__16ranges6__data4__fnclB7v160006IRNS0_8subrangeIPKcS6_LNS0_13subrange_kindE1EEEEEDaOT_, symObjAddr: 0x367C, symBinAddr: 0x100006D44, symSize: 0x28 }
  - { offsetInCU: 0x1DE77, offset: 0x1DE77, size: 0x8, addend: 0x0, symName: __ZNSt3__16ranges14view_interfaceINS0_8subrangeIPKcS4_LNS0_13subrange_kindE1EEEE4dataB7v160006IS6_EEDav, symObjAddr: 0x36A4, symBinAddr: 0x100006D6C, symSize: 0x38 }
  - { offsetInCU: 0x1DEA6, offset: 0x1DEA6, size: 0x8, addend: 0x0, symName: __ZNSt3__16ranges14view_interfaceINS0_8subrangeIPKcS4_LNS0_13subrange_kindE1EEEE9__derivedB7v160006Ev, symObjAddr: 0x3700, symBinAddr: 0x100006DC8, symSize: 0x14 }
  - { offsetInCU: 0x1DECC, offset: 0x1DECC, size: 0x8, addend: 0x0, symName: __ZNSt3__117__compressed_pairIPNS_17basic_string_viewIcNS_11char_traitsIcEEEENS_9allocatorIS4_EEE6secondB7v160006Ev, symObjAddr: 0x3728, symBinAddr: 0x100006DF0, symSize: 0x24 }
  - { offsetInCU: 0x1DEF2, offset: 0x1DEF2, size: 0x8, addend: 0x0, symName: __ZNSt3__122__compressed_pair_elemINS_9allocatorINS_17basic_string_viewIcNS_11char_traitsIcEEEEEELi1ELb1EE5__getB7v160006Ev, symObjAddr: 0x374C, symBinAddr: 0x100006E14, symSize: 0x14 }
  - { offsetInCU: 0x1DF18, offset: 0x1DF18, size: 0x8, addend: 0x0, symName: __ZNSt3__16vectorINS_17basic_string_viewIcNS_11char_traitsIcEEEENS_9allocatorIS4_EEE21_ConstructTransactionD2B7v160006Ev, symObjAddr: 0x3760, symBinAddr: 0x100006E28, symSize: 0x20 }
  - { offsetInCU: 0x1DF42, offset: 0x1DF42, size: 0x8, addend: 0x0, symName: __ZNKSt3__16vectorINS_17basic_string_viewIcNS_11char_traitsIcEEEENS_9allocatorIS4_EEE11__recommendB7v160006Em, symObjAddr: 0x3780, symBinAddr: 0x100006E48, symSize: 0xB4 }
  - { offsetInCU: 0x1DF97, offset: 0x1DF97, size: 0x8, addend: 0x0, symName: __ZNSt3__114__split_bufferINS_17basic_string_viewIcNS_11char_traitsIcEEEERNS_9allocatorIS4_EEEC1EmmS7_, symObjAddr: 0x3834, symBinAddr: 0x100006EFC, symSize: 0x44 }
  - { offsetInCU: 0x1DFED, offset: 0x1DFED, size: 0x8, addend: 0x0, symName: __ZNSt3__114__split_bufferINS_17basic_string_viewIcNS_11char_traitsIcEEEERNS_9allocatorIS4_EEED1Ev, symObjAddr: 0x3990, symBinAddr: 0x100007058, symSize: 0x2C }
  - { offsetInCU: 0x1E019, offset: 0x1E019, size: 0x8, addend: 0x0, symName: __ZNKSt3__16vectorINS_17basic_string_viewIcNS_11char_traitsIcEEEENS_9allocatorIS4_EEE8max_sizeEv, symObjAddr: 0x39BC, symBinAddr: 0x100007084, symSize: 0x60 }
  - { offsetInCU: 0x1E041, offset: 0x1E041, size: 0x8, addend: 0x0, symName: __ZNKSt3__16vectorINS_17basic_string_viewIcNS_11char_traitsIcEEEENS_9allocatorIS4_EEE20__throw_length_errorB7v160006Ev, symObjAddr: 0x3A1C, symBinAddr: 0x1000070E4, symSize: 0x1C }
  - { offsetInCU: 0x1E067, offset: 0x1E067, size: 0x8, addend: 0x0, symName: __ZNKSt3__16vectorINS_17basic_string_viewIcNS_11char_traitsIcEEEENS_9allocatorIS4_EEE8capacityB7v160006Ev, symObjAddr: 0x3A38, symBinAddr: 0x100007100, symSize: 0x40 }
  - { offsetInCU: 0x1E098, offset: 0x1E098, size: 0x8, addend: 0x0, symName: __ZNSt3__116allocator_traitsINS_9allocatorINS_17basic_string_viewIcNS_11char_traitsIcEEEEEEE8max_sizeB7v160006IS6_vvEEmRKS6_, symObjAddr: 0x3AD0, symBinAddr: 0x100007198, symSize: 0x28 }
  - { offsetInCU: 0x1E0C4, offset: 0x1E0C4, size: 0x8, addend: 0x0, symName: __ZNKSt3__16vectorINS_17basic_string_viewIcNS_11char_traitsIcEEEENS_9allocatorIS4_EEE7__allocB7v160006Ev, symObjAddr: 0x3AF8, symBinAddr: 0x1000071C0, symSize: 0x28 }
  - { offsetInCU: 0x1E0EA, offset: 0x1E0EA, size: 0x8, addend: 0x0, symName: __ZNSt3__114numeric_limitsIlE3maxB7v160006Ev, symObjAddr: 0x3B20, symBinAddr: 0x1000071E8, symSize: 0x14 }
  - { offsetInCU: 0x1E114, offset: 0x1E114, size: 0x8, addend: 0x0, symName: __ZNKSt3__16__lessImmEclB7v160006ERKmS3_, symObjAddr: 0x3B88, symBinAddr: 0x100007250, symSize: 0x34 }
  - { offsetInCU: 0x1E156, offset: 0x1E156, size: 0x8, addend: 0x0, symName: __ZNSt3__114numeric_limitsImE3maxB7v160006Ev, symObjAddr: 0x3BBC, symBinAddr: 0x100007284, symSize: 0x14 }
  - { offsetInCU: 0x1E16A, offset: 0x1E16A, size: 0x8, addend: 0x0, symName: __ZNSt3__123__libcpp_numeric_limitsImLb1EE3maxB7v160006Ev, symObjAddr: 0x3BD0, symBinAddr: 0x100007298, symSize: 0x8 }
  - { offsetInCU: 0x1E17E, offset: 0x1E17E, size: 0x8, addend: 0x0, symName: __ZNKSt3__117__compressed_pairIPNS_17basic_string_viewIcNS_11char_traitsIcEEEENS_9allocatorIS4_EEE6secondB7v160006Ev, symObjAddr: 0x3BD8, symBinAddr: 0x1000072A0, symSize: 0x24 }
  - { offsetInCU: 0x1E1A4, offset: 0x1E1A4, size: 0x8, addend: 0x0, symName: __ZNKSt3__122__compressed_pair_elemINS_9allocatorINS_17basic_string_viewIcNS_11char_traitsIcEEEEEELi1ELb1EE5__getB7v160006Ev, symObjAddr: 0x3BFC, symBinAddr: 0x1000072C4, symSize: 0x14 }
  - { offsetInCU: 0x1E1CA, offset: 0x1E1CA, size: 0x8, addend: 0x0, symName: __ZNSt3__123__libcpp_numeric_limitsIlLb1EE3maxB7v160006Ev, symObjAddr: 0x3C10, symBinAddr: 0x1000072D8, symSize: 0x8 }
  - { offsetInCU: 0x1E1DE, offset: 0x1E1DE, size: 0x8, addend: 0x0, symName: __ZNSt12length_errorC1B7v160006EPKc, symObjAddr: 0x3C7C, symBinAddr: 0x100007344, symSize: 0x34 }
  - { offsetInCU: 0x1E216, offset: 0x1E216, size: 0x8, addend: 0x0, symName: __ZNSt12length_errorC2B7v160006EPKc, symObjAddr: 0x3CB0, symBinAddr: 0x100007378, symSize: 0x4C }
  - { offsetInCU: 0x1E24E, offset: 0x1E24E, size: 0x8, addend: 0x0, symName: __ZNKSt3__16vectorINS_17basic_string_viewIcNS_11char_traitsIcEEEENS_9allocatorIS4_EEE9__end_capB7v160006Ev, symObjAddr: 0x3CFC, symBinAddr: 0x1000073C4, symSize: 0x28 }
  - { offsetInCU: 0x1E274, offset: 0x1E274, size: 0x8, addend: 0x0, symName: __ZNKSt3__117__compressed_pairIPNS_17basic_string_viewIcNS_11char_traitsIcEEEENS_9allocatorIS4_EEE5firstB7v160006Ev, symObjAddr: 0x3D24, symBinAddr: 0x1000073EC, symSize: 0x24 }
  - { offsetInCU: 0x1E29A, offset: 0x1E29A, size: 0x8, addend: 0x0, symName: __ZNKSt3__122__compressed_pair_elemIPNS_17basic_string_viewIcNS_11char_traitsIcEEEELi0ELb0EE5__getB7v160006Ev, symObjAddr: 0x3D48, symBinAddr: 0x100007410, symSize: 0x14 }
  - { offsetInCU: 0x1E2C0, offset: 0x1E2C0, size: 0x8, addend: 0x0, symName: __ZNSt3__114__split_bufferINS_17basic_string_viewIcNS_11char_traitsIcEEEERNS_9allocatorIS4_EEEC2EmmS7_, symObjAddr: 0x3DB0, symBinAddr: 0x100007478, symSize: 0xD4 }
  - { offsetInCU: 0x1E333, offset: 0x1E333, size: 0x8, addend: 0x0, symName: __ZNSt3__117__compressed_pairIPNS_17basic_string_viewIcNS_11char_traitsIcEEEERNS_9allocatorIS4_EEEC1B7v160006IDnS8_EEOT_OT0_, symObjAddr: 0x3E84, symBinAddr: 0x10000754C, symSize: 0x3C }
  - { offsetInCU: 0x1E38B, offset: 0x1E38B, size: 0x8, addend: 0x0, symName: __ZNSt3__114__split_bufferINS_17basic_string_viewIcNS_11char_traitsIcEEEERNS_9allocatorIS4_EEE7__allocB7v160006Ev, symObjAddr: 0x3EFC, symBinAddr: 0x1000075C4, symSize: 0x28 }
  - { offsetInCU: 0x1E3B1, offset: 0x1E3B1, size: 0x8, addend: 0x0, symName: __ZNSt3__114__split_bufferINS_17basic_string_viewIcNS_11char_traitsIcEEEERNS_9allocatorIS4_EEE9__end_capB7v160006Ev, symObjAddr: 0x3F24, symBinAddr: 0x1000075EC, symSize: 0x28 }
  - { offsetInCU: 0x1E3D7, offset: 0x1E3D7, size: 0x8, addend: 0x0, symName: __ZNSt3__117__compressed_pairIPNS_17basic_string_viewIcNS_11char_traitsIcEEEERNS_9allocatorIS4_EEEC2B7v160006IDnS8_EEOT_OT0_, symObjAddr: 0x3F4C, symBinAddr: 0x100007614, symSize: 0x48 }
  - { offsetInCU: 0x1E42F, offset: 0x1E42F, size: 0x8, addend: 0x0, symName: __ZNSt3__122__compressed_pair_elemIRNS_9allocatorINS_17basic_string_viewIcNS_11char_traitsIcEEEEEELi1ELb0EEC2B7v160006IS7_vEEOT_, symObjAddr: 0x3F94, symBinAddr: 0x10000765C, symSize: 0x20 }
  - { offsetInCU: 0x1E471, offset: 0x1E471, size: 0x8, addend: 0x0, symName: __ZNSt3__19allocatorINS_17basic_string_viewIcNS_11char_traitsIcEEEEE17allocate_at_leastB7v160006Em, symObjAddr: 0x3FF0, symBinAddr: 0x1000076B8, symSize: 0x40 }
  - { offsetInCU: 0x1E4A5, offset: 0x1E4A5, size: 0x8, addend: 0x0, symName: __ZNSt3__19allocatorINS_17basic_string_viewIcNS_11char_traitsIcEEEEE8allocateB7v160006Em, symObjAddr: 0x4030, symBinAddr: 0x1000076F8, symSize: 0x58 }
  - { offsetInCU: 0x1E4D9, offset: 0x1E4D9, size: 0x8, addend: 0x0, symName: __ZNSt3__117__compressed_pairIPNS_17basic_string_viewIcNS_11char_traitsIcEEEERNS_9allocatorIS4_EEE6secondB7v160006Ev, symObjAddr: 0x418C, symBinAddr: 0x100007854, symSize: 0x28 }
  - { offsetInCU: 0x1E4FF, offset: 0x1E4FF, size: 0x8, addend: 0x0, symName: __ZNSt3__122__compressed_pair_elemIRNS_9allocatorINS_17basic_string_viewIcNS_11char_traitsIcEEEEEELi1ELb0EE5__getB7v160006Ev, symObjAddr: 0x41B4, symBinAddr: 0x10000787C, symSize: 0x18 }
  - { offsetInCU: 0x1E525, offset: 0x1E525, size: 0x8, addend: 0x0, symName: __ZNSt3__117__compressed_pairIPNS_17basic_string_viewIcNS_11char_traitsIcEEEERNS_9allocatorIS4_EEE5firstB7v160006Ev, symObjAddr: 0x41CC, symBinAddr: 0x100007894, symSize: 0x24 }
  - { offsetInCU: 0x1E54B, offset: 0x1E54B, size: 0x8, addend: 0x0, symName: __ZNKSt3__16vectorINS_17basic_string_viewIcNS_11char_traitsIcEEEENS_9allocatorIS4_EEE17__annotate_deleteB7v160006Ev, symObjAddr: 0x41F0, symBinAddr: 0x1000078B8, symSize: 0xB8 }
  - { offsetInCU: 0x1E571, offset: 0x1E571, size: 0x8, addend: 0x0, symName: __ZNSt3__116reverse_iteratorIPNS_17basic_string_viewIcNS_11char_traitsIcEEEEEC1B7v160006ES5_, symObjAddr: 0x4320, symBinAddr: 0x1000079E8, symSize: 0x34 }
  - { offsetInCU: 0x1E5A9, offset: 0x1E5A9, size: 0x8, addend: 0x0, symName: __ZNKSt3__116reverse_iteratorIPNS_17basic_string_viewIcNS_11char_traitsIcEEEEE4baseB7v160006Ev, symObjAddr: 0x4354, symBinAddr: 0x100007A1C, symSize: 0x18 }
  - { offsetInCU: 0x1E5CF, offset: 0x1E5CF, size: 0x8, addend: 0x0, symName: __ZNKSt3__16vectorINS_17basic_string_viewIcNS_11char_traitsIcEEEENS_9allocatorIS4_EEE14__annotate_newB7v160006Em, symObjAddr: 0x43A8, symBinAddr: 0x100007A70, symSize: 0xAC }
  - { offsetInCU: 0x1E604, offset: 0x1E604, size: 0x8, addend: 0x0, symName: __ZNKSt3__16vectorINS_17basic_string_viewIcNS_11char_traitsIcEEEENS_9allocatorIS4_EEE31__annotate_contiguous_containerB7v160006EPKvS9_S9_S9_, symObjAddr: 0x4464, symBinAddr: 0x100007B2C, symSize: 0x20 }
  - { offsetInCU: 0x1E65A, offset: 0x1E65A, size: 0x8, addend: 0x0, symName: __ZNKSt3__16vectorINS_17basic_string_viewIcNS_11char_traitsIcEEEENS_9allocatorIS4_EEE4dataB7v160006Ev, symObjAddr: 0x4484, symBinAddr: 0x100007B4C, symSize: 0x28 }
  - { offsetInCU: 0x1E6AE, offset: 0x1E6AE, size: 0x8, addend: 0x0, symName: __ZNKSt3__111__move_loopINS_17_ClassicAlgPolicyEEclB7v160006INS_16reverse_iteratorIPNS_17basic_string_viewIcNS_11char_traitsIcEEEEEESA_SA_EENS_4pairIT_T1_EESC_T0_SD_, symObjAddr: 0x4764, symBinAddr: 0x100007E2C, symSize: 0xA0 }
  - { offsetInCU: 0x1E719, offset: 0x1E719, size: 0x8, addend: 0x0, symName: __ZNSt3__119__unwrap_range_implINS_16reverse_iteratorIPNS_17basic_string_viewIcNS_11char_traitsIcEEEEEES7_E8__unwrapB7v160006ES7_S7_, symObjAddr: 0x4950, symBinAddr: 0x100008018, symSize: 0x84 }
  - { offsetInCU: 0x1E750, offset: 0x1E750, size: 0x8, addend: 0x0, symName: __ZNSt3__14pairINS_16reverse_iteratorIPNS_17basic_string_viewIcNS_11char_traitsIcEEEEEES7_EC1B7v160006IS7_S7_LPv0EEEOT_OT0_, symObjAddr: 0x49D4, symBinAddr: 0x10000809C, symSize: 0x3C }
  - { offsetInCU: 0x1E7AE, offset: 0x1E7AE, size: 0x8, addend: 0x0, symName: __ZNSt3__14pairINS_16reverse_iteratorIPNS_17basic_string_viewIcNS_11char_traitsIcEEEEEES7_EC2B7v160006IS7_S7_LPv0EEEOT_OT0_, symObjAddr: 0x4A10, symBinAddr: 0x1000080D8, symSize: 0x34 }
  - { offsetInCU: 0x1E812, offset: 0x1E812, size: 0x8, addend: 0x0, symName: __ZNSt3__18_IterOpsINS_17_ClassicAlgPolicyEE11__iter_moveB7v160006IRNS_16reverse_iteratorIPNS_17basic_string_viewIcNS_11char_traitsIcEEEEEEEENS_9enable_ifIXsr12is_referenceIDTdeclsr3stdE7declvalIRT_EEEEE5valueEDTclsr3stdE4movedeclsr3stdE7declvalISE_EEEEE4typeEOSD_, symObjAddr: 0x4A8C, symBinAddr: 0x100008154, symSize: 0x28 }
  - { offsetInCU: 0x1E83E, offset: 0x1E83E, size: 0x8, addend: 0x0, symName: __ZNKSt3__116reverse_iteratorIPNS_17basic_string_viewIcNS_11char_traitsIcEEEEEdeB7v160006Ev, symObjAddr: 0x4AB4, symBinAddr: 0x10000817C, symSize: 0x28 }
  - { offsetInCU: 0x1E872, offset: 0x1E872, size: 0x8, addend: 0x0, symName: __ZNSt3__116reverse_iteratorIPNS_17basic_string_viewIcNS_11char_traitsIcEEEEEppB7v160006Ev, symObjAddr: 0x4ADC, symBinAddr: 0x1000081A4, symSize: 0x20 }
  - { offsetInCU: 0x1E898, offset: 0x1E898, size: 0x8, addend: 0x0, symName: __ZNSt3__18_IterOpsINS_17_ClassicAlgPolicyEE25__validate_iter_referenceB7v160006IRNS_16reverse_iteratorIPNS_17basic_string_viewIcNS_11char_traitsIcEEEEEEEEvv, symObjAddr: 0x4AFC, symBinAddr: 0x1000081C4, symSize: 0x4 }
  - { offsetInCU: 0x1E8B6, offset: 0x1E8B6, size: 0x8, addend: 0x0, symName: __ZNSt3__118__unwrap_iter_implINS_16reverse_iteratorIPNS_17basic_string_viewIcNS_11char_traitsIcEEEEEELb0EE8__unwrapB7v160006ES7_, symObjAddr: 0x4B00, symBinAddr: 0x1000081C8, symSize: 0x24 }
  - { offsetInCU: 0x1E8D9, offset: 0x1E8D9, size: 0x8, addend: 0x0, symName: __ZNSt3__119__unwrap_range_implINS_16reverse_iteratorIPNS_17basic_string_viewIcNS_11char_traitsIcEEEEEES7_E8__rewrapB7v160006ES7_S7_, symObjAddr: 0x4B24, symBinAddr: 0x1000081EC, symSize: 0x5C }
  - { offsetInCU: 0x1E90A, offset: 0x1E90A, size: 0x8, addend: 0x0, symName: __ZNSt3__118__unwrap_iter_implINS_16reverse_iteratorIPNS_17basic_string_viewIcNS_11char_traitsIcEEEEEELb0EE8__rewrapB7v160006ES7_S7_, symObjAddr: 0x4B80, symBinAddr: 0x100008248, symSize: 0x2C }
  - { offsetInCU: 0x1E938, offset: 0x1E938, size: 0x8, addend: 0x0, symName: __ZNSt3__116reverse_iteratorIPNS_17basic_string_viewIcNS_11char_traitsIcEEEEEC2B7v160006ES5_, symObjAddr: 0x4BAC, symBinAddr: 0x100008274, symSize: 0x28 }
  - { offsetInCU: 0x1E970, offset: 0x1E970, size: 0x8, addend: 0x0, symName: __ZNSt3__114__split_bufferINS_17basic_string_viewIcNS_11char_traitsIcEEEERNS_9allocatorIS4_EEED2Ev, symObjAddr: 0x4BD4, symBinAddr: 0x10000829C, symSize: 0x8C }
  - { offsetInCU: 0x1E99C, offset: 0x1E99C, size: 0x8, addend: 0x0, symName: __ZNSt3__114__split_bufferINS_17basic_string_viewIcNS_11char_traitsIcEEEERNS_9allocatorIS4_EEE5clearB7v160006Ev, symObjAddr: 0x4C60, symBinAddr: 0x100008328, symSize: 0x28 }
  - { offsetInCU: 0x1E9C2, offset: 0x1E9C2, size: 0x8, addend: 0x0, symName: __ZNSt3__116allocator_traitsINS_9allocatorINS_17basic_string_viewIcNS_11char_traitsIcEEEEEEE10deallocateB7v160006ERS6_PS5_m, symObjAddr: 0x4C88, symBinAddr: 0x100008350, symSize: 0x34 }
  - { offsetInCU: 0x1EA04, offset: 0x1EA04, size: 0x8, addend: 0x0, symName: __ZNKSt3__114__split_bufferINS_17basic_string_viewIcNS_11char_traitsIcEEEERNS_9allocatorIS4_EEE8capacityB7v160006Ev, symObjAddr: 0x4CBC, symBinAddr: 0x100008384, symSize: 0x40 }
  - { offsetInCU: 0x1EA2A, offset: 0x1EA2A, size: 0x8, addend: 0x0, symName: __ZNSt3__114__split_bufferINS_17basic_string_viewIcNS_11char_traitsIcEEEERNS_9allocatorIS4_EEE17__destruct_at_endB7v160006EPS4_, symObjAddr: 0x4CFC, symBinAddr: 0x1000083C4, symSize: 0x2C }
  - { offsetInCU: 0x1EA5E, offset: 0x1EA5E, size: 0x8, addend: 0x0, symName: __ZNSt3__114__split_bufferINS_17basic_string_viewIcNS_11char_traitsIcEEEERNS_9allocatorIS4_EEE17__destruct_at_endB7v160006EPS4_NS_17integral_constantIbLb0EEE, symObjAddr: 0x4D28, symBinAddr: 0x1000083F0, symSize: 0x80 }
  - { offsetInCU: 0x1EA9F, offset: 0x1EA9F, size: 0x8, addend: 0x0, symName: __ZNSt3__116allocator_traitsINS_9allocatorINS_17basic_string_viewIcNS_11char_traitsIcEEEEEEE7destroyB7v160006IS5_vvEEvRS6_PT_, symObjAddr: 0x4DA8, symBinAddr: 0x100008470, symSize: 0x28 }
  - { offsetInCU: 0x1EADA, offset: 0x1EADA, size: 0x8, addend: 0x0, symName: __ZNSt3__19allocatorINS_17basic_string_viewIcNS_11char_traitsIcEEEEE10deallocateB7v160006EPS4_m, symObjAddr: 0x4E04, symBinAddr: 0x1000084CC, symSize: 0x40 }
  - { offsetInCU: 0x1EB1C, offset: 0x1EB1C, size: 0x8, addend: 0x0, symName: __ZNKSt3__114__split_bufferINS_17basic_string_viewIcNS_11char_traitsIcEEEERNS_9allocatorIS4_EEE9__end_capB7v160006Ev, symObjAddr: 0x4F4C, symBinAddr: 0x100008614, symSize: 0x28 }
  - { offsetInCU: 0x1EB42, offset: 0x1EB42, size: 0x8, addend: 0x0, symName: __ZNKSt3__117__compressed_pairIPNS_17basic_string_viewIcNS_11char_traitsIcEEEERNS_9allocatorIS4_EEE5firstB7v160006Ev, symObjAddr: 0x4F74, symBinAddr: 0x10000863C, symSize: 0x24 }
  - { offsetInCU: 0x1EB68, offset: 0x1EB68, size: 0x8, addend: 0x0, symName: __ZNSt3__128__exception_guard_exceptionsINS_6vectorINS_17basic_string_viewIcNS_11char_traitsIcEEEENS_9allocatorIS5_EEE16__destroy_vectorEED2B7v160006Ev, symObjAddr: 0x4F98, symBinAddr: 0x100008660, symSize: 0x50 }
  - { offsetInCU: 0x1EB92, offset: 0x1EB92, size: 0x8, addend: 0x0, symName: __ZNSt3__16vectorINS_17basic_string_viewIcNS_11char_traitsIcEEEENS_9allocatorIS4_EEE16__destroy_vectorclB7v160006Ev, symObjAddr: 0x4FE8, symBinAddr: 0x1000086B0, symSize: 0x9C }
  - { offsetInCU: 0x1EBB8, offset: 0x1EBB8, size: 0x8, addend: 0x0, symName: __ZNSt3__16vectorINS_17basic_string_viewIcNS_11char_traitsIcEEEENS_9allocatorIS4_EEE7__clearB7v160006Ev, symObjAddr: 0x5094, symBinAddr: 0x10000875C, symSize: 0x28 }
  - { offsetInCU: 0x1EBDE, offset: 0x1EBDE, size: 0x8, addend: 0x0, symName: __ZNSt3__16vectorINS_17basic_string_viewIcNS_11char_traitsIcEEEENS_9allocatorIS4_EEE22__base_destruct_at_endB7v160006EPS4_, symObjAddr: 0x50BC, symBinAddr: 0x100008784, symSize: 0x8C }
  - { offsetInCU: 0x1EC22, offset: 0x1EC22, size: 0x8, addend: 0x0, symName: __ZNSt3__16vectorIxNS_9allocatorIxEEEC2EmRKx, symObjAddr: 0x5148, symBinAddr: 0x100008810, symSize: 0xE8 }
  - { offsetInCU: 0x1EC82, offset: 0x1EC82, size: 0x8, addend: 0x0, symName: __ZNSt3__117__compressed_pairIPxNS_9allocatorIxEEEC1B7v160006IDnNS_18__default_init_tagEEEOT_OT0_, symObjAddr: 0x5230, symBinAddr: 0x1000088F8, symSize: 0x3C }
  - { offsetInCU: 0x1ECDA, offset: 0x1ECDA, size: 0x8, addend: 0x0, symName: __ZNSt3__16vectorIxNS_9allocatorIxEEE16__destroy_vectorC1ERS3_, symObjAddr: 0x52AC, symBinAddr: 0x100008974, symSize: 0x34 }
  - { offsetInCU: 0x1ED13, offset: 0x1ED13, size: 0x8, addend: 0x0, symName: __ZNSt3__16vectorIxNS_9allocatorIxEEE11__vallocateB7v160006Em, symObjAddr: 0x52F0, symBinAddr: 0x1000089B8, symSize: 0xAC }
  - { offsetInCU: 0x1ED57, offset: 0x1ED57, size: 0x8, addend: 0x0, symName: __ZNSt3__16vectorIxNS_9allocatorIxEEE18__construct_at_endEmRKx, symObjAddr: 0x539C, symBinAddr: 0x100008A64, symSize: 0xD0 }
  - { offsetInCU: 0x1EDD8, offset: 0x1EDD8, size: 0x8, addend: 0x0, symName: __ZNSt3__128__exception_guard_exceptionsINS_6vectorIxNS_9allocatorIxEEE16__destroy_vectorEE10__completeB7v160006Ev, symObjAddr: 0x546C, symBinAddr: 0x100008B34, symSize: 0x1C }
  - { offsetInCU: 0x1EDFE, offset: 0x1EDFE, size: 0x8, addend: 0x0, symName: __ZNSt3__128__exception_guard_exceptionsINS_6vectorIxNS_9allocatorIxEEE16__destroy_vectorEED1B7v160006Ev, symObjAddr: 0x5488, symBinAddr: 0x100008B50, symSize: 0x2C }
  - { offsetInCU: 0x1EE28, offset: 0x1EE28, size: 0x8, addend: 0x0, symName: __ZNSt3__117__compressed_pairIPxNS_9allocatorIxEEEC2B7v160006IDnNS_18__default_init_tagEEEOT_OT0_, symObjAddr: 0x54B4, symBinAddr: 0x100008B7C, symSize: 0x40 }
  - { offsetInCU: 0x1EE80, offset: 0x1EE80, size: 0x8, addend: 0x0, symName: __ZNSt3__122__compressed_pair_elemIPxLi0ELb0EEC2B7v160006IDnvEEOT_, symObjAddr: 0x54F4, symBinAddr: 0x100008BBC, symSize: 0x1C }
  - { offsetInCU: 0x1EEC2, offset: 0x1EEC2, size: 0x8, addend: 0x0, symName: __ZNSt3__122__compressed_pair_elemINS_9allocatorIxEELi1ELb1EEC2B7v160006ENS_18__default_init_tagE, symObjAddr: 0x5510, symBinAddr: 0x100008BD8, symSize: 0x2C }
  - { offsetInCU: 0x1EEF7, offset: 0x1EEF7, size: 0x8, addend: 0x0, symName: __ZNSt3__19allocatorIxEC2B7v160006Ev, symObjAddr: 0x553C, symBinAddr: 0x100008C04, symSize: 0x2C }
  - { offsetInCU: 0x1EF21, offset: 0x1EF21, size: 0x8, addend: 0x0, symName: __ZNSt3__116__non_trivial_ifILb1ENS_9allocatorIxEEEC2B7v160006Ev, symObjAddr: 0x5568, symBinAddr: 0x100008C30, symSize: 0x14 }
  - { offsetInCU: 0x1EF4B, offset: 0x1EF4B, size: 0x8, addend: 0x0, symName: __ZNSt3__128__exception_guard_exceptionsINS_6vectorIxNS_9allocatorIxEEE16__destroy_vectorEEC1B7v160006ES5_, symObjAddr: 0x557C, symBinAddr: 0x100008C44, symSize: 0x34 }
  - { offsetInCU: 0x1EF83, offset: 0x1EF83, size: 0x8, addend: 0x0, symName: __ZNSt3__128__exception_guard_exceptionsINS_6vectorIxNS_9allocatorIxEEE16__destroy_vectorEEC2B7v160006ES5_, symObjAddr: 0x55B0, symBinAddr: 0x100008C78, symSize: 0x24 }
  - { offsetInCU: 0x1EFBB, offset: 0x1EFBB, size: 0x8, addend: 0x0, symName: __ZNSt3__16vectorIxNS_9allocatorIxEEE16__destroy_vectorC2ERS3_, symObjAddr: 0x55D4, symBinAddr: 0x100008C9C, symSize: 0x20 }
  - { offsetInCU: 0x1EFF4, offset: 0x1EFF4, size: 0x8, addend: 0x0, symName: __ZNKSt3__16vectorIxNS_9allocatorIxEEE8max_sizeEv, symObjAddr: 0x55F4, symBinAddr: 0x100008CBC, symSize: 0x60 }
  - { offsetInCU: 0x1F01C, offset: 0x1F01C, size: 0x8, addend: 0x0, symName: __ZNKSt3__16vectorIxNS_9allocatorIxEEE20__throw_length_errorB7v160006Ev, symObjAddr: 0x5654, symBinAddr: 0x100008D1C, symSize: 0x1C }
  - { offsetInCU: 0x1F042, offset: 0x1F042, size: 0x8, addend: 0x0, symName: __ZNSt3__16vectorIxNS_9allocatorIxEEE7__allocB7v160006Ev, symObjAddr: 0x56AC, symBinAddr: 0x100008D74, symSize: 0x28 }
  - { offsetInCU: 0x1F068, offset: 0x1F068, size: 0x8, addend: 0x0, symName: __ZNSt3__16vectorIxNS_9allocatorIxEEE9__end_capB7v160006Ev, symObjAddr: 0x56D4, symBinAddr: 0x100008D9C, symSize: 0x28 }
  - { offsetInCU: 0x1F08E, offset: 0x1F08E, size: 0x8, addend: 0x0, symName: __ZNKSt3__16vectorIxNS_9allocatorIxEEE14__annotate_newB7v160006Em, symObjAddr: 0x56FC, symBinAddr: 0x100008DC4, symSize: 0xAC }
  - { offsetInCU: 0x1F0CE, offset: 0x1F0CE, size: 0x8, addend: 0x0, symName: __ZNSt3__116allocator_traitsINS_9allocatorIxEEE8max_sizeB7v160006IS2_vvEEmRKS2_, symObjAddr: 0x57A8, symBinAddr: 0x100008E70, symSize: 0x28 }
  - { offsetInCU: 0x1F0FA, offset: 0x1F0FA, size: 0x8, addend: 0x0, symName: __ZNKSt3__16vectorIxNS_9allocatorIxEEE7__allocB7v160006Ev, symObjAddr: 0x57D0, symBinAddr: 0x100008E98, symSize: 0x28 }
  - { offsetInCU: 0x1F120, offset: 0x1F120, size: 0x8, addend: 0x0, symName: __ZNKSt3__117__compressed_pairIPxNS_9allocatorIxEEE6secondB7v160006Ev, symObjAddr: 0x57F8, symBinAddr: 0x100008EC0, symSize: 0x24 }
  - { offsetInCU: 0x1F146, offset: 0x1F146, size: 0x8, addend: 0x0, symName: __ZNKSt3__122__compressed_pair_elemINS_9allocatorIxEELi1ELb1EE5__getB7v160006Ev, symObjAddr: 0x581C, symBinAddr: 0x100008EE4, symSize: 0x14 }
  - { offsetInCU: 0x1F16C, offset: 0x1F16C, size: 0x8, addend: 0x0, symName: __ZNSt3__19allocatorIxE17allocate_at_leastB7v160006Em, symObjAddr: 0x586C, symBinAddr: 0x100008F34, symSize: 0x40 }
  - { offsetInCU: 0x1F1A0, offset: 0x1F1A0, size: 0x8, addend: 0x0, symName: __ZNSt3__19allocatorIxE8allocateB7v160006Em, symObjAddr: 0x58AC, symBinAddr: 0x100008F74, symSize: 0x58 }
  - { offsetInCU: 0x1F1D4, offset: 0x1F1D4, size: 0x8, addend: 0x0, symName: __ZNSt3__117__compressed_pairIPxNS_9allocatorIxEEE6secondB7v160006Ev, symObjAddr: 0x5904, symBinAddr: 0x100008FCC, symSize: 0x24 }
  - { offsetInCU: 0x1F1FA, offset: 0x1F1FA, size: 0x8, addend: 0x0, symName: __ZNSt3__122__compressed_pair_elemINS_9allocatorIxEELi1ELb1EE5__getB7v160006Ev, symObjAddr: 0x5928, symBinAddr: 0x100008FF0, symSize: 0x14 }
  - { offsetInCU: 0x1F220, offset: 0x1F220, size: 0x8, addend: 0x0, symName: __ZNSt3__117__compressed_pairIPxNS_9allocatorIxEEE5firstB7v160006Ev, symObjAddr: 0x593C, symBinAddr: 0x100009004, symSize: 0x24 }
  - { offsetInCU: 0x1F246, offset: 0x1F246, size: 0x8, addend: 0x0, symName: __ZNSt3__122__compressed_pair_elemIPxLi0ELb0EE5__getB7v160006Ev, symObjAddr: 0x5960, symBinAddr: 0x100009028, symSize: 0x14 }
  - { offsetInCU: 0x1F26C, offset: 0x1F26C, size: 0x8, addend: 0x0, symName: __ZNKSt3__16vectorIxNS_9allocatorIxEEE31__annotate_contiguous_containerB7v160006EPKvS5_S5_S5_, symObjAddr: 0x5974, symBinAddr: 0x10000903C, symSize: 0x20 }
  - { offsetInCU: 0x1F2C2, offset: 0x1F2C2, size: 0x8, addend: 0x0, symName: __ZNKSt3__16vectorIxNS_9allocatorIxEEE4dataB7v160006Ev, symObjAddr: 0x5994, symBinAddr: 0x10000905C, symSize: 0x28 }
  - { offsetInCU: 0x1F2E8, offset: 0x1F2E8, size: 0x8, addend: 0x0, symName: __ZNKSt3__16vectorIxNS_9allocatorIxEEE8capacityB7v160006Ev, symObjAddr: 0x59BC, symBinAddr: 0x100009084, symSize: 0x40 }
  - { offsetInCU: 0x1F30E, offset: 0x1F30E, size: 0x8, addend: 0x0, symName: __ZNKSt3__16vectorIxNS_9allocatorIxEEE9__end_capB7v160006Ev, symObjAddr: 0x5A10, symBinAddr: 0x1000090D8, symSize: 0x28 }
  - { offsetInCU: 0x1F334, offset: 0x1F334, size: 0x8, addend: 0x0, symName: __ZNKSt3__117__compressed_pairIPxNS_9allocatorIxEEE5firstB7v160006Ev, symObjAddr: 0x5A38, symBinAddr: 0x100009100, symSize: 0x24 }
  - { offsetInCU: 0x1F35A, offset: 0x1F35A, size: 0x8, addend: 0x0, symName: __ZNKSt3__122__compressed_pair_elemIPxLi0ELb0EE5__getB7v160006Ev, symObjAddr: 0x5A5C, symBinAddr: 0x100009124, symSize: 0x14 }
  - { offsetInCU: 0x1F39C, offset: 0x1F39C, size: 0x8, addend: 0x0, symName: __ZNSt3__16vectorIxNS_9allocatorIxEEE21_ConstructTransactionC1B7v160006ERS3_m, symObjAddr: 0x5A70, symBinAddr: 0x100009138, symSize: 0x3C }
  - { offsetInCU: 0x1F3EA, offset: 0x1F3EA, size: 0x8, addend: 0x0, symName: __ZNSt3__116allocator_traitsINS_9allocatorIxEEE9constructB7v160006IxJRKxEvvEEvRS2_PT_DpOT0_, symObjAddr: 0x5AAC, symBinAddr: 0x100009174, symSize: 0x30 }
  - { offsetInCU: 0x1F43F, offset: 0x1F43F, size: 0x8, addend: 0x0, symName: __ZNSt3__16vectorIxNS_9allocatorIxEEE21_ConstructTransactionD1B7v160006Ev, symObjAddr: 0x5ADC, symBinAddr: 0x1000091A4, symSize: 0x2C }
  - { offsetInCU: 0x1F469, offset: 0x1F469, size: 0x8, addend: 0x0, symName: __ZNSt3__16vectorIxNS_9allocatorIxEEE21_ConstructTransactionC2B7v160006ERS3_m, symObjAddr: 0x5B08, symBinAddr: 0x1000091D0, symSize: 0x44 }
  - { offsetInCU: 0x1F4B1, offset: 0x1F4B1, size: 0x8, addend: 0x0, symName: __ZNSt3__16vectorIxNS_9allocatorIxEEE21_ConstructTransactionD2B7v160006Ev, symObjAddr: 0x5B78, symBinAddr: 0x100009240, symSize: 0x20 }
  - { offsetInCU: 0x1F4DB, offset: 0x1F4DB, size: 0x8, addend: 0x0, symName: __ZNSt3__128__exception_guard_exceptionsINS_6vectorIxNS_9allocatorIxEEE16__destroy_vectorEED2B7v160006Ev, symObjAddr: 0x5B98, symBinAddr: 0x100009260, symSize: 0x50 }
  - { offsetInCU: 0x1F505, offset: 0x1F505, size: 0x8, addend: 0x0, symName: __ZNSt3__16vectorIxNS_9allocatorIxEEE16__destroy_vectorclB7v160006Ev, symObjAddr: 0x5BE8, symBinAddr: 0x1000092B0, symSize: 0x9C }
  - { offsetInCU: 0x1F52B, offset: 0x1F52B, size: 0x8, addend: 0x0, symName: __ZNKSt3__16vectorIxNS_9allocatorIxEEE17__annotate_deleteB7v160006Ev, symObjAddr: 0x5C84, symBinAddr: 0x10000934C, symSize: 0xB8 }
  - { offsetInCU: 0x1F551, offset: 0x1F551, size: 0x8, addend: 0x0, symName: __ZNSt3__16vectorIxNS_9allocatorIxEEE7__clearB7v160006Ev, symObjAddr: 0x5D4C, symBinAddr: 0x100009414, symSize: 0x28 }
  - { offsetInCU: 0x1F577, offset: 0x1F577, size: 0x8, addend: 0x0, symName: __ZNSt3__116allocator_traitsINS_9allocatorIxEEE10deallocateB7v160006ERS2_Pxm, symObjAddr: 0x5D74, symBinAddr: 0x10000943C, symSize: 0x34 }
  - { offsetInCU: 0x1F5B9, offset: 0x1F5B9, size: 0x8, addend: 0x0, symName: __ZNSt3__16vectorIxNS_9allocatorIxEEE22__base_destruct_at_endB7v160006EPx, symObjAddr: 0x5DA8, symBinAddr: 0x100009470, symSize: 0x8C }
  - { offsetInCU: 0x1F5FD, offset: 0x1F5FD, size: 0x8, addend: 0x0, symName: __ZNSt3__116allocator_traitsINS_9allocatorIxEEE7destroyB7v160006IxvvEEvRS2_PT_, symObjAddr: 0x5E34, symBinAddr: 0x1000094FC, symSize: 0x28 }
  - { offsetInCU: 0x1F638, offset: 0x1F638, size: 0x8, addend: 0x0, symName: __ZNSt3__19allocatorIxE10deallocateB7v160006EPxm, symObjAddr: 0x5E90, symBinAddr: 0x100009558, symSize: 0x40 }
  - { offsetInCU: 0x1F67A, offset: 0x1F67A, size: 0x8, addend: 0x0, symName: __ZNSt3__16vectorIxNS_9allocatorIxEEEC2ERKS3_, symObjAddr: 0x5ED0, symBinAddr: 0x100009598, symSize: 0x110 }
  - { offsetInCU: 0x1F6DA, offset: 0x1F6DA, size: 0x8, addend: 0x0, symName: __ZNSt3__116allocator_traitsINS_9allocatorIxEEE37select_on_container_copy_constructionB7v160006IS2_vvEES2_RKS2_, symObjAddr: 0x5FE0, symBinAddr: 0x1000096A8, symSize: 0x10 }
  - { offsetInCU: 0x1F70F, offset: 0x1F70F, size: 0x8, addend: 0x0, symName: __ZNSt3__117__compressed_pairIPxNS_9allocatorIxEEEC1B7v160006IDnS3_EEOT_OT0_, symObjAddr: 0x5FF0, symBinAddr: 0x1000096B8, symSize: 0x3C }
  - { offsetInCU: 0x1F767, offset: 0x1F767, size: 0x8, addend: 0x0, symName: __ZNSt3__16vectorIxNS_9allocatorIxEEE18__construct_at_endIPxLi0EEEvT_S6_m, symObjAddr: 0x602C, symBinAddr: 0x1000096F4, symSize: 0x8C }
  - { offsetInCU: 0x1F7DA, offset: 0x1F7DA, size: 0x8, addend: 0x0, symName: __ZNSt3__117__compressed_pairIPxNS_9allocatorIxEEEC2B7v160006IDnS3_EEOT_OT0_, symObjAddr: 0x60B8, symBinAddr: 0x100009780, symSize: 0x44 }
  - { offsetInCU: 0x1F832, offset: 0x1F832, size: 0x8, addend: 0x0, symName: __ZNSt3__122__compressed_pair_elemINS_9allocatorIxEELi1ELb1EEC2B7v160006IS2_vEEOT_, symObjAddr: 0x60FC, symBinAddr: 0x1000097C4, symSize: 0x18 }
  - { offsetInCU: 0x1F874, offset: 0x1F874, size: 0x8, addend: 0x0, symName: __ZNSt3__129_AllocatorDestroyRangeReverseINS_9allocatorIxEEPxEC1B7v160006ERS2_RS3_S6_, symObjAddr: 0x6254, symBinAddr: 0x10000991C, symSize: 0x44 }
  - { offsetInCU: 0x1F8CB, offset: 0x1F8CB, size: 0x8, addend: 0x0, symName: __ZNSt3__116allocator_traitsINS_9allocatorIxEEE9constructB7v160006IxJRxEvvEEvRS2_PT_DpOT0_, symObjAddr: 0x6298, symBinAddr: 0x100009960, symSize: 0x30 }
  - { offsetInCU: 0x1F920, offset: 0x1F920, size: 0x8, addend: 0x0, symName: __ZNSt3__128__exception_guard_exceptionsINS_29_AllocatorDestroyRangeReverseINS_9allocatorIxEEPxEEE10__completeB7v160006Ev, symObjAddr: 0x62C8, symBinAddr: 0x100009990, symSize: 0x1C }
  - { offsetInCU: 0x1F946, offset: 0x1F946, size: 0x8, addend: 0x0, symName: __ZNSt3__128__exception_guard_exceptionsINS_29_AllocatorDestroyRangeReverseINS_9allocatorIxEEPxEEED1B7v160006Ev, symObjAddr: 0x62E4, symBinAddr: 0x1000099AC, symSize: 0x2C }
  - { offsetInCU: 0x1F970, offset: 0x1F970, size: 0x8, addend: 0x0, symName: __ZNSt3__128__exception_guard_exceptionsINS_29_AllocatorDestroyRangeReverseINS_9allocatorIxEEPxEEEC1B7v160006ES5_, symObjAddr: 0x6310, symBinAddr: 0x1000099D8, symSize: 0x34 }
  - { offsetInCU: 0x1F9A9, offset: 0x1F9A9, size: 0x8, addend: 0x0, symName: __ZNSt3__128__exception_guard_exceptionsINS_29_AllocatorDestroyRangeReverseINS_9allocatorIxEEPxEEEC2B7v160006ES5_, symObjAddr: 0x6344, symBinAddr: 0x100009A0C, symSize: 0x30 }
  - { offsetInCU: 0x1F9E2, offset: 0x1F9E2, size: 0x8, addend: 0x0, symName: __ZNSt3__129_AllocatorDestroyRangeReverseINS_9allocatorIxEEPxEC2B7v160006ERS2_RS3_S6_, symObjAddr: 0x6374, symBinAddr: 0x100009A3C, symSize: 0x38 }
  - { offsetInCU: 0x1FA39, offset: 0x1FA39, size: 0x8, addend: 0x0, symName: __ZNSt3__128__exception_guard_exceptionsINS_29_AllocatorDestroyRangeReverseINS_9allocatorIxEEPxEEED2B7v160006Ev, symObjAddr: 0x63D8, symBinAddr: 0x100009AA0, symSize: 0x50 }
  - { offsetInCU: 0x1FA63, offset: 0x1FA63, size: 0x8, addend: 0x0, symName: __ZNKSt3__129_AllocatorDestroyRangeReverseINS_9allocatorIxEEPxEclB7v160006Ev, symObjAddr: 0x6428, symBinAddr: 0x100009AF0, symSize: 0x68 }
  - { offsetInCU: 0x1FA89, offset: 0x1FA89, size: 0x8, addend: 0x0, symName: __ZNSt3__116reverse_iteratorIPxEC1B7v160006ES1_, symObjAddr: 0x6500, symBinAddr: 0x100009BC8, symSize: 0x34 }
  - { offsetInCU: 0x1FAC1, offset: 0x1FAC1, size: 0x8, addend: 0x0, symName: __ZNSt3__116reverse_iteratorIPxEppB7v160006Ev, symObjAddr: 0x65A0, symBinAddr: 0x100009C68, symSize: 0x20 }
  - { offsetInCU: 0x1FAE7, offset: 0x1FAE7, size: 0x8, addend: 0x0, symName: __ZNKSt3__116reverse_iteratorIPxE4baseB7v160006Ev, symObjAddr: 0x65C0, symBinAddr: 0x100009C88, symSize: 0x18 }
  - { offsetInCU: 0x1FB13, offset: 0x1FB13, size: 0x8, addend: 0x0, symName: __ZNSt3__119__to_address_helperINS_16reverse_iteratorIPxEEvE6__callB7v160006ERKS3_, symObjAddr: 0x65D8, symBinAddr: 0x100009CA0, symSize: 0x38 }
  - { offsetInCU: 0x1FB36, offset: 0x1FB36, size: 0x8, addend: 0x0, symName: __ZNKSt3__116reverse_iteratorIPxEptB7v160006Ev, symObjAddr: 0x6610, symBinAddr: 0x100009CD8, symSize: 0x2C }
  - { offsetInCU: 0x1FB5C, offset: 0x1FB5C, size: 0x8, addend: 0x0, symName: __ZNSt3__116reverse_iteratorIPxEC2B7v160006ES1_, symObjAddr: 0x6718, symBinAddr: 0x100009DE0, symSize: 0x28 }
  - { offsetInCU: 0x1FB94, offset: 0x1FB94, size: 0x8, addend: 0x0, symName: __ZNSt3__16vectorIxNS_9allocatorIxEEED2B7v160006Ev, symObjAddr: 0x6740, symBinAddr: 0x100009E08, symSize: 0x44 }
  - { offsetInCU: 0x1FBBE, offset: 0x1FBBE, size: 0x8, addend: 0x0, symName: __ZNSt3__16vectorINS_17basic_string_viewIcNS_11char_traitsIcEEEENS_9allocatorIS4_EEED2B7v160006Ev, symObjAddr: 0x6784, symBinAddr: 0x100009E4C, symSize: 0x44 }
  - { offsetInCU: 0x1FBE8, offset: 0x1FBE8, size: 0x8, addend: 0x0, symName: __ZNSt3__117basic_string_viewIcNS_11char_traitsIcEEEC2B7v160006EPKc, symObjAddr: 0x67C8, symBinAddr: 0x100009E90, symSize: 0x44 }
  - { offsetInCU: 0x1FC21, offset: 0x1FC21, size: 0x8, addend: 0x0, symName: __ZNSt3__111char_traitsIcE6lengthEPKc, symObjAddr: 0x6830, symBinAddr: 0x100009EF8, symSize: 0x34 }
  - { offsetInCU: 0x1FC44, offset: 0x1FC44, size: 0x8, addend: 0x0, symName: __ZNKSt3__112basic_stringIcNS_11char_traitsIcEENS_9allocatorIcEEE4dataB7v160006Ev, symObjAddr: 0x6888, symBinAddr: 0x100009F50, symSize: 0x28 }
  - { offsetInCU: 0x1FC6A, offset: 0x1FC6A, size: 0x8, addend: 0x0, symName: __ZNKSt3__112basic_stringIcNS_11char_traitsIcEENS_9allocatorIcEEE4sizeB7v160006Ev, symObjAddr: 0x68B0, symBinAddr: 0x100009F78, symSize: 0x54 }
  - { offsetInCU: 0x1FC90, offset: 0x1FC90, size: 0x8, addend: 0x0, symName: __ZNSt3__117basic_string_viewIcNS_11char_traitsIcEEEC1B7v160006EPKcm, symObjAddr: 0x6904, symBinAddr: 0x100009FCC, symSize: 0x3C }
  - { offsetInCU: 0x1FCD8, offset: 0x1FCD8, size: 0x8, addend: 0x0, symName: __ZNKSt3__112basic_stringIcNS_11char_traitsIcEENS_9allocatorIcEEE13__get_pointerB7v160006Ev, symObjAddr: 0x6940, symBinAddr: 0x10000A008, symSize: 0x54 }
  - { offsetInCU: 0x1FCFE, offset: 0x1FCFE, size: 0x8, addend: 0x0, symName: __ZNKSt3__112basic_stringIcNS_11char_traitsIcEENS_9allocatorIcEEE9__is_longB7v160006Ev, symObjAddr: 0x6994, symBinAddr: 0x10000A05C, symSize: 0x38 }
  - { offsetInCU: 0x1FD24, offset: 0x1FD24, size: 0x8, addend: 0x0, symName: __ZNKSt3__112basic_stringIcNS_11char_traitsIcEENS_9allocatorIcEEE18__get_long_pointerB7v160006Ev, symObjAddr: 0x69CC, symBinAddr: 0x10000A094, symSize: 0x28 }
  - { offsetInCU: 0x1FD4A, offset: 0x1FD4A, size: 0x8, addend: 0x0, symName: __ZNKSt3__112basic_stringIcNS_11char_traitsIcEENS_9allocatorIcEEE19__get_short_pointerB7v160006Ev, symObjAddr: 0x69F4, symBinAddr: 0x10000A0BC, symSize: 0x28 }
  - { offsetInCU: 0x1FD70, offset: 0x1FD70, size: 0x8, addend: 0x0, symName: __ZNKSt3__117__compressed_pairINS_12basic_stringIcNS_11char_traitsIcEENS_9allocatorIcEEE5__repES5_E5firstB7v160006Ev, symObjAddr: 0x6A1C, symBinAddr: 0x10000A0E4, symSize: 0x24 }
  - { offsetInCU: 0x1FD96, offset: 0x1FD96, size: 0x8, addend: 0x0, symName: __ZNKSt3__122__compressed_pair_elemINS_12basic_stringIcNS_11char_traitsIcEENS_9allocatorIcEEE5__repELi0ELb0EE5__getB7v160006Ev, symObjAddr: 0x6A40, symBinAddr: 0x10000A108, symSize: 0x14 }
  - { offsetInCU: 0x1FDBC, offset: 0x1FDBC, size: 0x8, addend: 0x0, symName: __ZNSt3__114pointer_traitsIPKcE10pointer_toB7v160006ERS1_, symObjAddr: 0x6A54, symBinAddr: 0x10000A11C, symSize: 0x14 }
  - { offsetInCU: 0x1FDDF, offset: 0x1FDDF, size: 0x8, addend: 0x0, symName: __ZNKSt3__112basic_stringIcNS_11char_traitsIcEENS_9allocatorIcEEE15__get_long_sizeB7v160006Ev, symObjAddr: 0x6A68, symBinAddr: 0x10000A130, symSize: 0x28 }
  - { offsetInCU: 0x1FE05, offset: 0x1FE05, size: 0x8, addend: 0x0, symName: __ZNKSt3__112basic_stringIcNS_11char_traitsIcEENS_9allocatorIcEEE16__get_short_sizeB7v160006Ev, symObjAddr: 0x6A90, symBinAddr: 0x10000A158, symSize: 0x34 }
  - { offsetInCU: 0x1FE2B, offset: 0x1FE2B, size: 0x8, addend: 0x0, symName: __ZNSt3__117basic_string_viewIcNS_11char_traitsIcEEEC2B7v160006EPKcm, symObjAddr: 0x6AC4, symBinAddr: 0x10000A18C, symSize: 0x50 }
  - { offsetInCU: 0x1FE73, offset: 0x1FE73, size: 0x8, addend: 0x0, symName: __ZNSt3__19basic_iosIcNS_11char_traitsIcEEEC2B7v160006Ev, symObjAddr: 0x6B14, symBinAddr: 0x10000A1DC, symSize: 0x44 }
  - { offsetInCU: 0x1FE9D, offset: 0x1FE9D, size: 0x8, addend: 0x0, symName: __ZNSt3__113basic_istreamIcNS_11char_traitsIcEEEC2B7v160006EPNS_15basic_streambufIcS2_EE, symObjAddr: 0x6B58, symBinAddr: 0x10000A220, symSize: 0x64 }
  - { offsetInCU: 0x1FEE2, offset: 0x1FEE2, size: 0x8, addend: 0x0, symName: __ZNSt3__18ios_baseC2B7v160006Ev, symObjAddr: 0x6BBC, symBinAddr: 0x10000A284, symSize: 0x24 }
  - { offsetInCU: 0x1FF0C, offset: 0x1FF0C, size: 0x8, addend: 0x0, symName: __ZNSt3__19basic_iosIcNS_11char_traitsIcEEE4initB7v160006EPNS_15basic_streambufIcS2_EE, symObjAddr: 0x6BE0, symBinAddr: 0x10000A2A8, symSize: 0x44 }
  - { offsetInCU: 0x1FF43, offset: 0x1FF43, size: 0x8, addend: 0x0, symName: __ZNSt3__111char_traitsIcE3eofEv, symObjAddr: 0x6C24, symBinAddr: 0x10000A2EC, symSize: 0x8 }
  - { offsetInCU: 0x1FF57, offset: 0x1FF57, size: 0x8, addend: 0x0, symName: __ZNKSt3__14__fs10filesystem4path5c_strB7v160006Ev, symObjAddr: 0x6C2C, symBinAddr: 0x10000A2F4, symSize: 0x24 }
  - { offsetInCU: 0x1FF7D, offset: 0x1FF7D, size: 0x8, addend: 0x0, symName: __ZNKSt3__112basic_stringIcNS_11char_traitsIcEENS_9allocatorIcEEE5c_strB7v160006Ev, symObjAddr: 0x6C50, symBinAddr: 0x10000A318, symSize: 0x24 }
  - { offsetInCU: 0x1FFA3, offset: 0x1FFA3, size: 0x8, addend: 0x0, symName: __ZNSt3__14__fs10filesystem4pathC2B7v160006INS_17basic_string_viewIcNS_11char_traitsIcEEEEvEERKT_NS2_6formatE, symObjAddr: 0x6C74, symBinAddr: 0x10000A33C, symSize: 0x68 }
  - { offsetInCU: 0x1FFF2, offset: 0x1FFF2, size: 0x8, addend: 0x0, symName: __ZNSt3__112basic_stringIcNS_11char_traitsIcEENS_9allocatorIcEEEC1B7v160006Ev, symObjAddr: 0x6CDC, symBinAddr: 0x10000A3A4, symSize: 0x2C }
  - { offsetInCU: 0x20022, offset: 0x20022, size: 0x8, addend: 0x0, symName: __ZNSt3__14__fs10filesystem8_PathCVTIcE15__append_sourceB7v160006INS_17basic_string_viewIcNS_11char_traitsIcEEEEEEvRNS_12basic_stringIcS7_NS_9allocatorIcEEEERKT_, symObjAddr: 0x6D08, symBinAddr: 0x10000A3D0, symSize: 0x4C }
  - { offsetInCU: 0x2005E, offset: 0x2005E, size: 0x8, addend: 0x0, symName: __ZNSt3__112basic_stringIcNS_11char_traitsIcEENS_9allocatorIcEEEC2B7v160006Ev, symObjAddr: 0x6D54, symBinAddr: 0x10000A41C, symSize: 0x54 }
  - { offsetInCU: 0x20088, offset: 0x20088, size: 0x8, addend: 0x0, symName: __ZNSt3__117__compressed_pairINS_12basic_stringIcNS_11char_traitsIcEENS_9allocatorIcEEE5__repES5_EC1B7v160006INS_18__default_init_tagESA_EEOT_OT0_, symObjAddr: 0x6DA8, symBinAddr: 0x10000A470, symSize: 0x3C }
  - { offsetInCU: 0x200E0, offset: 0x200E0, size: 0x8, addend: 0x0, symName: __ZNSt3__112basic_stringIcNS_11char_traitsIcEENS_9allocatorIcEEE14__default_initB7v160006Ev, symObjAddr: 0x6DF4, symBinAddr: 0x10000A4BC, symSize: 0x40 }
  - { offsetInCU: 0x20106, offset: 0x20106, size: 0x8, addend: 0x0, symName: __ZNSt3__117__compressed_pairINS_12basic_stringIcNS_11char_traitsIcEENS_9allocatorIcEEE5__repES5_EC2B7v160006INS_18__default_init_tagESA_EEOT_OT0_, symObjAddr: 0x6E34, symBinAddr: 0x10000A4FC, symSize: 0x3C }
  - { offsetInCU: 0x2015E, offset: 0x2015E, size: 0x8, addend: 0x0, symName: __ZNSt3__122__compressed_pair_elemINS_12basic_stringIcNS_11char_traitsIcEENS_9allocatorIcEEE5__repELi0ELb0EEC2B7v160006ENS_18__default_init_tagE, symObjAddr: 0x6E70, symBinAddr: 0x10000A538, symSize: 0x14 }
  - { offsetInCU: 0x20193, offset: 0x20193, size: 0x8, addend: 0x0, symName: __ZNSt3__122__compressed_pair_elemINS_9allocatorIcEELi1ELb1EEC2B7v160006ENS_18__default_init_tagE, symObjAddr: 0x6E84, symBinAddr: 0x10000A54C, symSize: 0x2C }
  - { offsetInCU: 0x201C8, offset: 0x201C8, size: 0x8, addend: 0x0, symName: __ZNSt3__19allocatorIcEC2B7v160006Ev, symObjAddr: 0x6EB0, symBinAddr: 0x10000A578, symSize: 0x2C }
  - { offsetInCU: 0x201F2, offset: 0x201F2, size: 0x8, addend: 0x0, symName: __ZNSt3__116__non_trivial_ifILb1ENS_9allocatorIcEEEC2B7v160006Ev, symObjAddr: 0x6EDC, symBinAddr: 0x10000A5A4, symSize: 0x14 }
  - { offsetInCU: 0x2021C, offset: 0x2021C, size: 0x8, addend: 0x0, symName: __ZNSt3__117__compressed_pairINS_12basic_stringIcNS_11char_traitsIcEENS_9allocatorIcEEE5__repES5_E5firstB7v160006Ev, symObjAddr: 0x6EF0, symBinAddr: 0x10000A5B8, symSize: 0x24 }
  - { offsetInCU: 0x20242, offset: 0x20242, size: 0x8, addend: 0x0, symName: __ZNSt3__122__compressed_pair_elemINS_12basic_stringIcNS_11char_traitsIcEENS_9allocatorIcEEE5__repELi0ELb0EE5__getB7v160006Ev, symObjAddr: 0x6F14, symBinAddr: 0x10000A5DC, symSize: 0x14 }
  - { offsetInCU: 0x20268, offset: 0x20268, size: 0x8, addend: 0x0, symName: __ZNSt3__14__fs10filesystem8_PathCVTIcE14__append_rangeB7v160006IPKcEENS_9enable_ifIXsr27__is_cpp17_forward_iteratorIT_EE5valueEvE4typeERNS_12basic_stringIcNS_11char_traitsIcEENS_9allocatorIcEEEES8_S8_, symObjAddr: 0x6F28, symBinAddr: 0x10000A5F0, symSize: 0x34 }
  - { offsetInCU: 0x202BE, offset: 0x202BE, size: 0x8, addend: 0x0, symName: __ZNSt3__14__fs10filesystem20__is_pathable_stringINS_17basic_string_viewIcNS_11char_traitsIcEEEEvE13__range_beginB7v160006ERKS6_, symObjAddr: 0x6F5C, symBinAddr: 0x10000A624, symSize: 0x24 }
  - { offsetInCU: 0x202E1, offset: 0x202E1, size: 0x8, addend: 0x0, symName: __ZNSt3__14__fs10filesystem20__is_pathable_stringINS_17basic_string_viewIcNS_11char_traitsIcEEEEvE11__range_endB7v160006ERKS6_, symObjAddr: 0x6F80, symBinAddr: 0x10000A648, symSize: 0x3C }
  - { offsetInCU: 0x20310, offset: 0x20310, size: 0x8, addend: 0x0, symName: __ZNSt3__112basic_stringIcNS_11char_traitsIcEENS_9allocatorIcEEE6appendB7v160006IPKcEENS_9enable_ifIXsr27__is_cpp17_forward_iteratorIT_EE5valueERS5_E4typeESA_SA_, symObjAddr: 0x6FBC, symBinAddr: 0x10000A684, symSize: 0x1E4 }
  - { offsetInCU: 0x203BF, offset: 0x203BF, size: 0x8, addend: 0x0, symName: __ZNKSt3__112basic_stringIcNS_11char_traitsIcEENS_9allocatorIcEEE8capacityB7v160006Ev, symObjAddr: 0x71A0, symBinAddr: 0x10000A868, symSize: 0x54 }
  - { offsetInCU: 0x203E5, offset: 0x203E5, size: 0x8, addend: 0x0, symName: __ZNKSt3__112basic_stringIcNS_11char_traitsIcEENS_9allocatorIcEEE15__addr_in_rangeB7v160006IRKcEEbOT_, symObjAddr: 0x7220, symBinAddr: 0x10000A8E8, symSize: 0x98 }
  - { offsetInCU: 0x20432, offset: 0x20432, size: 0x8, addend: 0x0, symName: __ZNSt3__112basic_stringIcNS_11char_traitsIcEENS_9allocatorIcEEE13__get_pointerB7v160006Ev, symObjAddr: 0x72B8, symBinAddr: 0x10000A980, symSize: 0x54 }
  - { offsetInCU: 0x20458, offset: 0x20458, size: 0x8, addend: 0x0, symName: __ZNSt3__111char_traitsIcE6assignERcRKc, symObjAddr: 0x730C, symBinAddr: 0x10000A9D4, symSize: 0x24 }
  - { offsetInCU: 0x20489, offset: 0x20489, size: 0x8, addend: 0x0, symName: __ZNSt3__112basic_stringIcNS_11char_traitsIcEENS_9allocatorIcEEE10__set_sizeB7v160006Em, symObjAddr: 0x7330, symBinAddr: 0x10000A9F8, symSize: 0x54 }
  - { offsetInCU: 0x204BE, offset: 0x204BE, size: 0x8, addend: 0x0, symName: __ZNSt3__112basic_stringIcNS_11char_traitsIcEENS_9allocatorIcEEE7__allocB7v160006Ev, symObjAddr: 0x7384, symBinAddr: 0x10000AA4C, symSize: 0x24 }
  - { offsetInCU: 0x204E4, offset: 0x204E4, size: 0x8, addend: 0x0, symName: __ZNSt3__112basic_stringIcNS_11char_traitsIcEENS_9allocatorIcEEEC1B7v160006IPKcvEET_S9_RKS4_, symObjAddr: 0x73A8, symBinAddr: 0x10000AA70, symSize: 0x44 }
  - { offsetInCU: 0x20545, offset: 0x20545, size: 0x8, addend: 0x0, symName: __ZNKSt3__112basic_stringIcNS_11char_traitsIcEENS_9allocatorIcEEE14__get_long_capB7v160006Ev, symObjAddr: 0x73EC, symBinAddr: 0x10000AAB4, symSize: 0x30 }
  - { offsetInCU: 0x2056B, offset: 0x2056B, size: 0x8, addend: 0x0, symName: __ZNSt3__112basic_stringIcNS_11char_traitsIcEENS_9allocatorIcEEE18__get_long_pointerB7v160006Ev, symObjAddr: 0x743C, symBinAddr: 0x10000AB04, symSize: 0x28 }
  - { offsetInCU: 0x20591, offset: 0x20591, size: 0x8, addend: 0x0, symName: __ZNSt3__112basic_stringIcNS_11char_traitsIcEENS_9allocatorIcEEE19__get_short_pointerB7v160006Ev, symObjAddr: 0x7464, symBinAddr: 0x10000AB2C, symSize: 0x28 }
  - { offsetInCU: 0x205B7, offset: 0x205B7, size: 0x8, addend: 0x0, symName: __ZNSt3__114pointer_traitsIPcE10pointer_toB7v160006ERc, symObjAddr: 0x748C, symBinAddr: 0x10000AB54, symSize: 0x14 }
  - { offsetInCU: 0x205DA, offset: 0x205DA, size: 0x8, addend: 0x0, symName: __ZNSt3__112basic_stringIcNS_11char_traitsIcEENS_9allocatorIcEEE15__set_long_sizeB7v160006Em, symObjAddr: 0x74A0, symBinAddr: 0x10000AB68, symSize: 0x38 }
  - { offsetInCU: 0x2060F, offset: 0x2060F, size: 0x8, addend: 0x0, symName: __ZNSt3__112basic_stringIcNS_11char_traitsIcEENS_9allocatorIcEEE16__set_short_sizeB7v160006Em, symObjAddr: 0x74D8, symBinAddr: 0x10000ABA0, symSize: 0x78 }
  - { offsetInCU: 0x20644, offset: 0x20644, size: 0x8, addend: 0x0, symName: __ZNSt3__117__compressed_pairINS_12basic_stringIcNS_11char_traitsIcEENS_9allocatorIcEEE5__repES5_E6secondB7v160006Ev, symObjAddr: 0x7550, symBinAddr: 0x10000AC18, symSize: 0x24 }
  - { offsetInCU: 0x2066A, offset: 0x2066A, size: 0x8, addend: 0x0, symName: __ZNSt3__122__compressed_pair_elemINS_9allocatorIcEELi1ELb1EE5__getB7v160006Ev, symObjAddr: 0x7574, symBinAddr: 0x10000AC3C, symSize: 0x14 }
  - { offsetInCU: 0x20690, offset: 0x20690, size: 0x8, addend: 0x0, symName: __ZNSt3__112basic_stringIcNS_11char_traitsIcEENS_9allocatorIcEEEC2B7v160006IPKcvEET_S9_RKS4_, symObjAddr: 0x7588, symBinAddr: 0x10000AC50, symSize: 0x58 }
  - { offsetInCU: 0x206F1, offset: 0x206F1, size: 0x8, addend: 0x0, symName: __ZNSt3__117__compressed_pairINS_12basic_stringIcNS_11char_traitsIcEENS_9allocatorIcEEE5__repES5_EC1B7v160006INS_18__default_init_tagERKS5_EEOT_OT0_, symObjAddr: 0x75E0, symBinAddr: 0x10000ACA8, symSize: 0x3C }
  - { offsetInCU: 0x20749, offset: 0x20749, size: 0x8, addend: 0x0, symName: __ZNSt3__112basic_stringIcNS_11char_traitsIcEENS_9allocatorIcEEE6__initIPKcEENS_9enable_ifIXsr27__is_cpp17_forward_iteratorIT_EE5valueEvE4typeESA_SA_, symObjAddr: 0x761C, symBinAddr: 0x10000ACE4, symSize: 0x158 }
  - { offsetInCU: 0x207D3, offset: 0x207D3, size: 0x8, addend: 0x0, symName: __ZNSt3__117__compressed_pairINS_12basic_stringIcNS_11char_traitsIcEENS_9allocatorIcEEE5__repES5_EC2B7v160006INS_18__default_init_tagERKS5_EEOT_OT0_, symObjAddr: 0x7774, symBinAddr: 0x10000AE3C, symSize: 0x40 }
  - { offsetInCU: 0x2082B, offset: 0x2082B, size: 0x8, addend: 0x0, symName: __ZNSt3__122__compressed_pair_elemINS_9allocatorIcEELi1ELb1EEC2B7v160006IRKS2_vEEOT_, symObjAddr: 0x77B4, symBinAddr: 0x10000AE7C, symSize: 0x18 }
  - { offsetInCU: 0x2086D, offset: 0x2086D, size: 0x8, addend: 0x0, symName: __ZNKSt3__112basic_stringIcNS_11char_traitsIcEENS_9allocatorIcEEE8max_sizeB7v160006Ev, symObjAddr: 0x77CC, symBinAddr: 0x10000AE94, symSize: 0xAC }
  - { offsetInCU: 0x208BF, offset: 0x208BF, size: 0x8, addend: 0x0, symName: __ZNKSt3__112basic_stringIcNS_11char_traitsIcEENS_9allocatorIcEEE20__throw_length_errorB7v160006Ev, symObjAddr: 0x7878, symBinAddr: 0x10000AF40, symSize: 0x1C }
  - { offsetInCU: 0x208E5, offset: 0x208E5, size: 0x8, addend: 0x0, symName: __ZNSt3__112basic_stringIcNS_11char_traitsIcEENS_9allocatorIcEEE13__fits_in_ssoB7v160006Em, symObjAddr: 0x7894, symBinAddr: 0x10000AF5C, symSize: 0x20 }
  - { offsetInCU: 0x20909, offset: 0x20909, size: 0x8, addend: 0x0, symName: __ZNSt3__112basic_stringIcNS_11char_traitsIcEENS_9allocatorIcEEE11__recommendB7v160006Em, symObjAddr: 0x78F0, symBinAddr: 0x10000AFB8, symSize: 0x84 }
  - { offsetInCU: 0x2093C, offset: 0x2093C, size: 0x8, addend: 0x0, symName: __ZNSt3__112basic_stringIcNS_11char_traitsIcEENS_9allocatorIcEEE16__begin_lifetimeB7v160006EPcm, symObjAddr: 0x7974, symBinAddr: 0x10000B03C, symSize: 0x14 }
  - { offsetInCU: 0x2096F, offset: 0x2096F, size: 0x8, addend: 0x0, symName: __ZNSt3__112basic_stringIcNS_11char_traitsIcEENS_9allocatorIcEEE18__set_long_pointerB7v160006EPc, symObjAddr: 0x7988, symBinAddr: 0x10000B050, symSize: 0x38 }
  - { offsetInCU: 0x209A4, offset: 0x209A4, size: 0x8, addend: 0x0, symName: __ZNSt3__112basic_stringIcNS_11char_traitsIcEENS_9allocatorIcEEE14__set_long_capB7v160006Em, symObjAddr: 0x79C0, symBinAddr: 0x10000B088, symSize: 0x70 }
  - { offsetInCU: 0x209E4, offset: 0x209E4, size: 0x8, addend: 0x0, symName: __ZNSt3__116allocator_traitsINS_9allocatorIcEEE8max_sizeB7v160006IS2_vvEEmRKS2_, symObjAddr: 0x7A30, symBinAddr: 0x10000B0F8, symSize: 0x28 }
  - { offsetInCU: 0x20A10, offset: 0x20A10, size: 0x8, addend: 0x0, symName: __ZNKSt3__112basic_stringIcNS_11char_traitsIcEENS_9allocatorIcEEE7__allocB7v160006Ev, symObjAddr: 0x7A58, symBinAddr: 0x10000B120, symSize: 0x24 }
  - { offsetInCU: 0x20A36, offset: 0x20A36, size: 0x8, addend: 0x0, symName: __ZNKSt3__117__compressed_pairINS_12basic_stringIcNS_11char_traitsIcEENS_9allocatorIcEEE5__repES5_E6secondB7v160006Ev, symObjAddr: 0x7A7C, symBinAddr: 0x10000B144, symSize: 0x24 }
  - { offsetInCU: 0x20A5C, offset: 0x20A5C, size: 0x8, addend: 0x0, symName: __ZNKSt3__122__compressed_pair_elemINS_9allocatorIcEELi1ELb1EE5__getB7v160006Ev, symObjAddr: 0x7AA0, symBinAddr: 0x10000B168, symSize: 0x14 }
  - { offsetInCU: 0x20A82, offset: 0x20A82, size: 0x8, addend: 0x0, symName: __ZNSt3__19allocatorIcE17allocate_at_leastB7v160006Em, symObjAddr: 0x7AF0, symBinAddr: 0x10000B1B8, symSize: 0x40 }
  - { offsetInCU: 0x20AB6, offset: 0x20AB6, size: 0x8, addend: 0x0, symName: __ZNSt3__19allocatorIcE8allocateB7v160006Em, symObjAddr: 0x7B30, symBinAddr: 0x10000B1F8, symSize: 0x58 }
  - { offsetInCU: 0x20AEA, offset: 0x20AEA, size: 0x8, addend: 0x0, symName: __ZNSt3__112basic_stringIcNS_11char_traitsIcEENS_9allocatorIcEEE10__align_itB7v160006ILm16EEEmm, symObjAddr: 0x7B88, symBinAddr: 0x10000B250, symSize: 0x1C }
  - { offsetInCU: 0x20B18, offset: 0x20B18, size: 0x8, addend: 0x0, symName: __ZNKSt3__117basic_string_viewIcNS_11char_traitsIcEEE4dataB7v160006Ev, symObjAddr: 0x7BA4, symBinAddr: 0x10000B26C, symSize: 0x18 }
  - { offsetInCU: 0x20B3E, offset: 0x20B3E, size: 0x8, addend: 0x0, symName: __ZNKSt3__117basic_string_viewIcNS_11char_traitsIcEEE6lengthB7v160006Ev, symObjAddr: 0x7BBC, symBinAddr: 0x10000B284, symSize: 0x18 }
  - { offsetInCU: 0x20B64, offset: 0x20B64, size: 0x8, addend: 0x0, symName: __ZNSt3__114basic_iostreamIcNS_11char_traitsIcEEEC2B7v160006EPNS_15basic_streambufIcS2_EE, symObjAddr: 0x7BD4, symBinAddr: 0x10000B29C, symSize: 0xAC }
  - { offsetInCU: 0x20BAA, offset: 0x20BAA, size: 0x8, addend: 0x0, symName: __ZNSt3__115basic_stringbufIcNS_11char_traitsIcEENS_9allocatorIcEEEC1B7v160006Ej, symObjAddr: 0x7C80, symBinAddr: 0x10000B348, symSize: 0x34 }
  - { offsetInCU: 0x20BE2, offset: 0x20BE2, size: 0x8, addend: 0x0, symName: __ZNSt3__113basic_ostreamIcNS_11char_traitsIcEEEC2B7v160006Ev, symObjAddr: 0x7CB4, symBinAddr: 0x10000B37C, symSize: 0x34 }
  - { offsetInCU: 0x20C19, offset: 0x20C19, size: 0x8, addend: 0x0, symName: __ZNSt3__115basic_stringbufIcNS_11char_traitsIcEENS_9allocatorIcEEEC2B7v160006Ej, symObjAddr: 0x7CE8, symBinAddr: 0x10000B3B0, symSize: 0x60 }
...
